 addon

 Timestamp is 58243477 (Thu Nov 10 09:48:55 2016)

 Preferred load address is 10000000

 Start         Length     Name                   Class
 0001:00000000 0000025fH .text                   CODE
 0001:00000260 000000e0H .text$di                CODE
 0001:00000340 0002e107H .text$mn                CODE
 0001:0002e450 000003ecH .text$x                 CODE
 0001:0002e840 00000061H .text$yd                CODE
 0002:00000000 00000388H .idata$5                DATA
 0002:00000388 00000004H .00cfg                  DATA
 0002:0000038c 00000004H .CRT$XCA                DATA
 0002:00000390 0000001cH .CRT$XCC                DATA
 0002:000003ac 00000008H .CRT$XCL                DATA
 0002:000003b4 00000008H .CRT$XCU                DATA
 0002:000003bc 00000004H .CRT$XCZ                DATA
 0002:000003c0 00000004H .CRT$XIA                DATA
 0002:000003c4 00000018H .CRT$XIC                DATA
 0002:000003dc 00000004H .CRT$XIZ                DATA
 0002:000003e0 00000004H .CRT$XLA                DATA
 0002:000003e4 00000004H .CRT$XLZ                DATA
 0002:000003e8 00000004H .CRT$XPA                DATA
 0002:000003ec 00000008H .CRT$XPX                DATA
 0002:000003f4 00000004H .CRT$XPXA               DATA
 0002:000003f8 00000004H .CRT$XPZ                DATA
 0002:000003fc 00000004H .CRT$XTA                DATA
 0002:00000400 00000004H .CRT$XTZ                DATA
 0002:00000410 000092a4H .rdata                  DATA
 0002:000096b4 00000018H .rdata$T                DATA
 0002:000096cc 000009f0H .rdata$r                DATA
 0002:0000a0c0 00000078H .rdata$sxdata           DATA
 0002:0000a138 00000010H .rdata$zETW0            DATA
 0002:0000a148 00000077H .rdata$zETW1            DATA
 0002:0000a1bf 0000002cH .rdata$zETW2            DATA
 0002:0000a1eb 00000001H .rdata$zETW9            DATA
 0002:0000a1ec 000004f4H .rdata$zzzdbg           DATA
 0002:0000a6e0 00000004H .rtc$IAA                DATA
 0002:0000a6e4 00000004H .rtc$IZZ                DATA
 0002:0000a6e8 00000004H .rtc$TAA                DATA
 0002:0000a6ec 00000004H .rtc$TZZ                DATA
 0002:0000a6f0 00000e24H .xdata$x                DATA
 0002:0000b514 00000020H .didat$2                DATA
 0002:0000b534 00000020H .didat$3                DATA
 0002:0000b554 000000ccH .didat$4                DATA
 0002:0000b620 00000c02H .didat$6                DATA
 0002:0000c224 000000ccH .didat$7                DATA
 0002:0000c2f0 0000004eH .edata                  DATA
 0002:0000c340 0000003cH .idata$2                DATA
 0002:0000c37c 00000014H .idata$3                DATA
 0002:0000c390 00000388H .idata$4                DATA
 0002:0000c718 00001baeH .idata$6                DATA
 0003:00000000 00000b90H .data                   DATA
 0003:00000b90 000004c7H .data$r                 DATA
 0003:00001058 000000ccH .didat$5                DATA
 0003:00001128 00000e2cH .bss                    DATA
 0004:00000000 000000c0H .gfids$x                DATA
 0004:000000c0 0000027cH .gfids$y                DATA
 0005:00000000 00000001H .tls                    DATA
 0005:00000004 00000004H .tls$                   DATA
 0005:00000008 00000001H .tls$ZZZ                DATA
 0006:00000000 00000058H .rsrc$01                DATA
 0006:00000060 00000180H .rsrc$02                DATA

  Address         Publics by Value              Rva+Base       Lib:Object

 0000:00000000       ___guard_fids_count        00000000     <absolute>
 0000:00000000       ___guard_longjmp_count     00000000     <absolute>
 0000:00000000       ___guard_longjmp_table     00000000     <absolute>
 0000:00000000       ___guard_fids_table        00000000     <absolute>
 0000:00000000       ___guard_iat_table         00000000     <absolute>
 0000:00000000       ___guard_iat_count         00000000     <absolute>
 0000:00000000       __except_list              00000000     <absolute>
 0000:0000001e       ___safe_se_handler_count   0000001e     <absolute>
 0000:0000002c       __tls_array                0000002c     <absolute>
 0000:00000100       ___guard_flags             00000100     <absolute>
 0000:00000000       ___ImageBase               10000000     <linker-defined>
 0001:00000000       ?TraceLoggingRegister@__vcrt_trace_logging_provider@@YAJPBU_TlgProvider_t@1@PBU_GUID@@P6GX1KE_K2PAU_EVENT_FILTER_DESCRIPTOR@@PAX@Z4@Z 10001000 f i libvcruntime:telemetry.obj
 0001:0000005d       ?TraceLoggingSetInformation@__vcrt_trace_logging_provider@@YAJPBU_TlgProvider_t@1@W4_EVENT_INFO_CLASS@@PAXK@Z 1000105d f i libvcruntime:telemetry.obj
 0001:00000088       ?TraceLoggingUnregister@__vcrt_trace_logging_provider@@YAXPBU_TlgProvider_t@1@@Z 10001088 f i libvcruntime:telemetry.obj
 0001:000000a7       ?_TlgCreateSz@__vcrt_trace_logging_provider@@YAXPAU_EVENT_DATA_DESCRIPTOR@@PBD@Z 100010a7 f i libvcruntime:telemetry.obj
 0001:000000df       ?_TlgCreateWsz@__vcrt_trace_logging_provider@@YAXPAU_EVENT_DATA_DESCRIPTOR@@PB_W@Z 100010df f i libvcruntime:telemetry.obj
 0001:00000123       ?_TlgEnableCallback@__vcrt_trace_logging_provider@@YGXPBU_GUID@@KE_K1PAU_EVENT_FILTER_DESCRIPTOR@@PAX@Z 10001123 f i libvcruntime:telemetry.obj
 0001:0000019b       ?_TlgKeywordOn@__vcrt_trace_logging_provider@@YAEPBU_TlgProvider_t@1@_K@Z 1000119b f i libvcruntime:telemetry.obj
 0001:000001d7       ?_TlgWrite@__vcrt_trace_logging_provider@@YAJPBU_TlgProvider_t@1@PBXPBU_GUID@@2IPAU_EVENT_DATA_DESCRIPTOR@@@Z 100011d7 f i libvcruntime:telemetry.obj
 0001:000003e0       ?New@?$Factory@VFunctionTemplate@v8@@@imp@Nan@@SA?AV?$Local@VFunctionTemplate@v8@@@v8@@P6AXABV?$FunctionCallbackInfo@VValue@v8@@@3@@ZV?$Local@VValue@v8@@@5@V?$Local@VSignature@v8@@@5@@Z 100013e0 f i addon.obj
 0001:00000500       ?InitDominoSession@@YAXABV?$FunctionCallbackInfo@VValue@v8@@@Nan@@@Z 10001500 f   addon.obj
 0001:00000530       ?TermDominoSession@@YAXABV?$FunctionCallbackInfo@VValue@v8@@@Nan@@@Z 10001530 f   addon.obj
 0001:00000550       ?InitAll@@YAXV?$Local@VObject@v8@@@v8@@@Z 10001550 f   addon.obj
 0001:00000af0       ?_Lock@?$basic_streambuf@DU?$char_traits@D@std@@@std@@UAEXXZ 10001af0 f i libcpmt:cout.obj
 0001:00000af0       ?__empty_global_delete@@YAXPAXI@Z 10001af0 f i addon.obj
 0001:00000af0       ___except_validate_context_record 10001af0 f i libvcruntime:jbcxrval.obj
 0001:00000af0       ?_Doraise@exception@stdext@@MBEXXZ 10001af0 f i DataHelper.obj
 0001:00000af0       @_guard_check_icall_nop@4  10001af0 f i LIBCMT:guard_support.obj
 0001:00000af0       ___except_validate_jump_buffer 10001af0 f i libvcruntime:jbcxrval.obj
 0001:00000af0       ?__global_delete@@YAXPAXI@Z 10001af0 f i * CIL library *:* CIL module *
 0001:00000af0       ?_Unlock@?$basic_streambuf@DU?$char_traits@D@std@@@std@@UAEXXZ 10001af0 f i libcpmt:cout.obj
 0001:00000b00       ??$New@VString@v8@@PBD@Nan@@YA?AV?$MaybeLocal@VString@v8@@@v8@@PBD@Z 10001b00 f i addon.obj
 0001:00000b20       ?what@exception@stdext@@UBEPBDXZ 10001b20 f i DataHelper.obj
 0001:00000b30       ?_Raise@exception@stdext@@QBEXXZ 10001b30 f i DataHelper.obj
 0001:00000b60       ??_Eruntime_error@std@@UAEPAXI@Z 10001b60 f i * CIL library *:* CIL module *
 0001:00000b60       ??_Gruntime_error@std@@UAEPAXI@Z 10001b60 f i DataHelper.obj
 0001:00000b60       ??_Eexception@stdext@@UAEPAXI@Z 10001b60 f i * CIL library *:* CIL module *
 0001:00000b60       ??_Gexception@stdext@@UAEPAXI@Z 10001b60 f i DataHelper.obj
 0001:00000b90       ?_Deallocate@std@@YAXPAXII@Z 10001b90 f i DataHelper.obj
 0001:00000bf0       ??0_Locinfo@std@@QAE@PBD@Z 10001bf0 f i DataHelper.obj
 0001:00000c70       ??1_Locinfo@std@@QAE@XZ    10001c70 f i DataHelper.obj
 0001:00000d10       ??_E_Facet_base@std@@UAEPAXI@Z 10001d10 f i * CIL library *:* CIL module *
 0001:00000d10       ??_G_Facet_base@std@@UAEPAXI@Z 10001d10 f i DataHelper.obj
 0001:00000d40       ??Bid@locale@std@@QAEIXZ   10001d40 f i DataHelper.obj
 0001:00000d80       ?_Incref@facet@locale@std@@UAEXXZ 10001d80 f i DataHelper.obj
 0001:00000d90       ?_Decref@facet@locale@std@@UAEPAV_Facet_base@3@XZ 10001d90 f i DataHelper.obj
 0001:00000db0       ??1locale@std@@QAE@XZ      10001db0 f i DataHelper.obj
 0001:00000dd0       ?c_str@locale@std@@QBEPBDXZ 10001dd0 f i DataHelper.obj
 0001:00000df0       ?_Getfacet@locale@std@@QBEPBVfacet@12@I@Z 10001df0 f i DataHelper.obj
 0001:00000e30       ?_Getcat@?$ctype@D@std@@SAIPAPBVfacet@locale@2@PBV42@@Z 10001e30 f i DataHelper.obj
 0001:00000ec0       ?do_tolower@?$ctype@D@std@@MBEDD@Z 10001ec0 f i DataHelper.obj
 0001:00000ee0       ?do_tolower@?$ctype@D@std@@MBEPBDPADPBD@Z 10001ee0 f i DataHelper.obj
 0001:00000f20       ?do_toupper@?$ctype@D@std@@MBEDD@Z 10001f20 f i DataHelper.obj
 0001:00000f40       ?do_toupper@?$ctype@D@std@@MBEPBDPADPBD@Z 10001f40 f i DataHelper.obj
 0001:00000f80       ?do_widen@?$ctype@D@std@@MBEDD@Z 10001f80 f i DataHelper.obj
 0001:00000f90       ?do_widen@?$ctype@D@std@@MBEPBDPBD0PAD@Z 10001f90 f i DataHelper.obj
 0001:00000fb0       ?do_narrow@?$ctype@D@std@@MBEDDD@Z 10001fb0 f i DataHelper.obj
 0001:00000fc0       ?do_narrow@?$ctype@D@std@@MBEPBDPBD0DPAD@Z 10001fc0 f i DataHelper.obj
 0001:00000fe0       ??_G?$ctype@D@std@@MAEPAXI@Z 10001fe0 f i DataHelper.obj
 0001:00000fe0       ??_E?$ctype@D@std@@MAEPAXI@Z 10001fe0 f i * CIL library *:* CIL module *
 0001:00001030       ??_Gerror_category@std@@UAEPAXI@Z 10002030 f i DataHelper.obj
 0001:00001030       ??_G_Iostream_error_category@std@@UAEPAXI@Z 10002030 f i DataHelper.obj
 0001:00001030       ??_E_Iostream_error_category@std@@UAEPAXI@Z 10002030 f i * CIL library *:* CIL module *
 0001:00001030       ??_Eerror_category@std@@UAEPAXI@Z 10002030 f i * CIL library *:* CIL module *
 0001:00001060       ?default_error_condition@error_category@std@@UBE?AVerror_condition@2@H@Z 10002060 f i DataHelper.obj
 0001:00001070       ?equivalent@error_category@std@@UBE_NHABVerror_condition@2@@Z 10002070 f i DataHelper.obj
 0001:000010d0       ?equivalent@error_category@std@@UBE_NABVerror_code@2@H@Z 100020d0 f i DataHelper.obj
 0001:00001100       ?_Makestr@_System_error@std@@CA?AV?$basic_string@DU?$char_traits@D@std@@V?$allocator@D@2@@2@Verror_code@2@V32@@Z 10002100 f i DataHelper.obj
 0001:000011c0       ??0_System_error@std@@IAE@Verror_code@1@ABV?$basic_string@DU?$char_traits@D@std@@V?$allocator@D@2@@1@@Z 100021c0 f i DataHelper.obj
 0001:00001260       ??_Efailure@ios_base@std@@UAEPAXI@Z 10002260 f i * CIL library *:* CIL module *
 0001:00001260       ??_Esystem_error@std@@UAEPAXI@Z 10002260 f i * CIL library *:* CIL module *
 0001:00001260       ??_E_System_error@std@@UAEPAXI@Z 10002260 f i * CIL library *:* CIL module *
 0001:00001260       ??_Gsystem_error@std@@UAEPAXI@Z 10002260 f i DataHelper.obj
 0001:00001260       ??_Gfailure@ios_base@std@@UAEPAXI@Z 10002260 f i DataHelper.obj
 0001:00001260       ??_G_System_error@std@@UAEPAXI@Z 10002260 f i DataHelper.obj
 0001:00001290       ??0system_error@std@@QAE@Verror_code@1@PBD@Z 10002290 f i DataHelper.obj
 0001:00001330       ?name@_Iostream_error_category@std@@UBEPBDXZ 10002330 f i DataHelper.obj
 0001:00001340       ?message@_Iostream_error_category@std@@UBE?AV?$basic_string@DU?$char_traits@D@std@@V?$allocator@D@2@@2@H@Z 10002340 f i DataHelper.obj
 0001:000013d0       ?clear@ios_base@std@@QAEXH_N@Z 100023d0 f i DataHelper.obj
 0001:00001480       ?getV8Data@DataHelper@@SA?AV?$Local@VObject@v8@@@v8@@V?$map@V?$basic_string@DU?$char_traits@D@std@@V?$allocator@D@2@@std@@VItemValue@@U?$less@V?$basic_string@DU?$char_traits@D@std@@V?$allocator@D@2@@std@@@2@V?$allocator@U?$pair@$$CBV?$basic_string@DU?$char_traits@D@std@@V?$allocator@D@2@@std@@VItemValue@@@std@@@2@@std@@@Z 10002480 f   DataHelper.obj
 0001:00001d00       ??1?$map@V?$basic_string@DU?$char_traits@D@std@@V?$allocator@D@2@@std@@VItemValue@@U?$less@V?$basic_string@DU?$char_traits@D@std@@V?$allocator@D@2@@std@@@2@V?$allocator@U?$pair@$$CBV?$basic_string@DU?$char_traits@D@std@@V?$allocator@D@2@@std@@VItemValue@@@std@@@2@@std@@QAE@XZ 10002d00 f i DataHelper.obj
 0001:00001d20       ??0ItemValue@@QAE@ABV0@@Z  10002d20 f i DataHelper.obj
 0001:00001d80       ??1ItemValue@@QAE@XZ       10002d80 f i DataHelper.obj
 0001:00001e00       ?getV8Data@DataHelper@@SA?AV?$Local@VArray@v8@@@v8@@V?$vector@V?$map@V?$basic_string@DU?$char_traits@D@std@@V?$allocator@D@2@@std@@VItemValue@@U?$less@V?$basic_string@DU?$char_traits@D@std@@V?$allocator@D@2@@std@@@2@V?$allocator@U?$pair@$$CBV?$basic_string@DU?$char_traits@D@std@@V?$allocator@D@2@@std@@VItemValue@@@std@@@2@@std@@V?$allocator@V?$map@V?$basic_string@DU?$char_traits@D@std@@V?$allocator@D@2@@std@@VItemValue@@U?$less@V?$basic_string@DU?$char_traits@D@std@@V?$allocator@D@2@@std@@@2@V?$allocator@U?$pair@$$CBV?$basic_string@DU?$char_traits@D@std@@V?$allocator@D@2@@std@@VItemValue@@@std@@@2@@std@@@2@@std@@@Z 10002e00 f   DataHelper.obj
 0001:00002290       ??E?$_Tree_iterator@V?$_Tree_val@U?$_Tree_simple_types@U?$pair@$$CBV?$basic_string@DU?$char_traits@D@std@@V?$allocator@D@2@@std@@VItemValue@@@std@@@std@@@std@@@std@@QAE?AV01@H@Z 10003290 f i DataHelper.obj
 0001:000022f0       ??0?$map@V?$basic_string@DU?$char_traits@D@std@@V?$allocator@D@2@@std@@VItemValue@@U?$less@V?$basic_string@DU?$char_traits@D@std@@V?$allocator@D@2@@std@@@2@V?$allocator@U?$pair@$$CBV?$basic_string@DU?$char_traits@D@std@@V?$allocator@D@2@@std@@VItemValue@@@std@@@2@@std@@QAE@ABV01@@Z 100032f0 f i DataHelper.obj
 0001:00002350       ??1?$vector@V?$basic_string@DU?$char_traits@D@std@@V?$allocator@D@2@@std@@V?$allocator@V?$basic_string@DU?$char_traits@D@std@@V?$allocator@D@2@@std@@@2@@std@@QAE@XZ 10003350 f i DataHelper.obj
 0001:000023a0       ??0?$vector@V?$basic_string@DU?$char_traits@D@std@@V?$allocator@D@2@@std@@V?$allocator@V?$basic_string@DU?$char_traits@D@std@@V?$allocator@D@2@@std@@@2@@std@@QAE@ABV01@@Z 100033a0 f i DataHelper.obj
 0001:00002430       ?append@?$basic_string@DU?$char_traits@D@std@@V?$allocator@D@2@@std@@QAEAAV12@PBD@Z 10003430 f i DataHelper.obj
 0001:00002470       ??1?$basic_string@DU?$char_traits@D@std@@V?$allocator@D@2@@std@@QAE@XZ 10003470 f i DataHelper.obj
 0001:000024a0       ??0?$basic_string@DU?$char_traits@D@std@@V?$allocator@D@2@@std@@QAE@$$QAV01@@Z 100034a0 f i DataHelper.obj
 0001:00002510       ??0?$basic_string@DU?$char_traits@D@std@@V?$allocator@D@2@@std@@QAE@PBD@Z 10003510 f i DataHelper.obj
 0001:00002560       ??0?$basic_string@DU?$char_traits@D@std@@V?$allocator@D@2@@std@@QAE@ABV01@@Z 10003560 f i DataHelper.obj
 0001:00002590       ?_Tidy@?$vector@V?$map@V?$basic_string@DU?$char_traits@D@std@@V?$allocator@D@2@@std@@VItemValue@@U?$less@V?$basic_string@DU?$char_traits@D@std@@V?$allocator@D@2@@std@@@2@V?$allocator@U?$pair@$$CBV?$basic_string@DU?$char_traits@D@std@@V?$allocator@D@2@@std@@VItemValue@@@std@@@2@@std@@V?$allocator@V?$map@V?$basic_string@DU?$char_traits@D@std@@V?$allocator@D@2@@std@@VItemValue@@U?$less@V?$basic_string@DU?$char_traits@D@std@@V?$allocator@D@2@@std@@@2@V?$allocator@U?$pair@$$CBV?$basic_string@DU?$char_traits@D@std@@V?$allocator@D@2@@std@@VItemValue@@@std@@@2@@std@@@2@@std@@IAEXXZ 10003590 f i DataHelper.obj
 0001:00002640       ?deallocate@?$_Wrap_alloc@V?$allocator@V?$basic_string@DU?$char_traits@D@std@@V?$allocator@D@2@@std@@@std@@@std@@QAEXPAV?$basic_string@DU?$char_traits@D@std@@V?$allocator@D@2@@2@I@Z 10003640 f i DataHelper.obj
 0001:000026a0       ?_Buy@?$vector@V?$basic_string@DU?$char_traits@D@std@@V?$allocator@D@2@@std@@V?$allocator@V?$basic_string@DU?$char_traits@D@std@@V?$allocator@D@2@@std@@@2@@std@@IAE_NI@Z 100036a0 f i DataHelper.obj
 0001:00002700       ?_Tidy@?$basic_string@DU?$char_traits@D@std@@V?$allocator@D@2@@std@@QAEX_NI@Z 10003700 f i DataHelper.obj
 0001:00002750       ?assign@?$basic_string@DU?$char_traits@D@std@@V?$allocator@D@2@@std@@QAEAAV12@PBDI@Z 10003750 f i DataHelper.obj
 0001:00002850       ?assign@?$basic_string@DU?$char_traits@D@std@@V?$allocator@D@2@@std@@QAEAAV12@ABV12@II@Z 10003850 f i DataHelper.obj
 0001:00002960       ?append@?$basic_string@DU?$char_traits@D@std@@V?$allocator@D@2@@std@@QAEAAV12@PBDI@Z 10003960 f i DataHelper.obj
 0001:00002a90       ?append@?$basic_string@DU?$char_traits@D@std@@V?$allocator@D@2@@std@@QAEAAV12@ABV12@II@Z 10003a90 f i DataHelper.obj
 0001:00002b90       ?_Assign_rv@?$basic_string@DU?$char_traits@D@std@@V?$allocator@D@2@@std@@QAEX$$QAV12@@Z 10003b90 f i DataHelper.obj
 0001:00002bf0       ?erase@?$_Tree@V?$_Tmap_traits@V?$basic_string@DU?$char_traits@D@std@@V?$allocator@D@2@@std@@VItemValue@@U?$less@V?$basic_string@DU?$char_traits@D@std@@V?$allocator@D@2@@std@@@2@V?$allocator@U?$pair@$$CBV?$basic_string@DU?$char_traits@D@std@@V?$allocator@D@2@@std@@VItemValue@@@std@@@2@$0A@@std@@@std@@QAE?AV?$_Tree_iterator@V?$_Tree_val@U?$_Tree_simple_types@U?$pair@$$CBV?$basic_string@DU?$char_traits@D@std@@V?$allocator@D@2@@std@@VItemValue@@@std@@@std@@@std@@@2@V?$_Tree_const_iterator@V?$_Tree_val@U?$_Tree_simple_types@U?$pair@$$CBV?$basic_string@DU?$char_traits@D@std@@V?$allocator@D@2@@std@@VItemValue@@@std@@@std@@@std@@@2@0@Z 10003bf0 f i DataHelper.obj
 0001:00002cb0       ?deallocate@?$_Wrap_alloc@V?$allocator@D@std@@@std@@QAEXPADI@Z 10003cb0 f i DataHelper.obj
 0001:00002d10       ?erase@?$basic_string@DU?$char_traits@D@std@@V?$allocator@D@2@@std@@QAEAAV12@II@Z 10003d10 f i DataHelper.obj
 0001:00002db0       ?erase@?$_Tree@V?$_Tmap_traits@V?$basic_string@DU?$char_traits@D@std@@V?$allocator@D@2@@std@@VItemValue@@U?$less@V?$basic_string@DU?$char_traits@D@std@@V?$allocator@D@2@@std@@@2@V?$allocator@U?$pair@$$CBV?$basic_string@DU?$char_traits@D@std@@V?$allocator@D@2@@std@@VItemValue@@@std@@@2@$0A@@std@@@std@@QAE?AV?$_Tree_iterator@V?$_Tree_val@U?$_Tree_simple_types@U?$pair@$$CBV?$basic_string@DU?$char_traits@D@std@@V?$allocator@D@2@@std@@VItemValue@@@std@@@std@@@std@@@2@V?$_Tree_const_iterator@V?$_Tree_val@U?$_Tree_simple_types@U?$pair@$$CBV?$basic_string@DU?$char_traits@D@std@@V?$allocator@D@2@@std@@VItemValue@@@std@@@std@@@std@@@2@@Z 10003db0 f i DataHelper.obj
 0001:00003220       ?allocate@?$allocator@V?$basic_string@DU?$char_traits@D@std@@V?$allocator@D@2@@std@@@std@@QAEPAV?$basic_string@DU?$char_traits@D@std@@V?$allocator@D@2@@2@I@Z 10004220 f i DataHelper.obj
 0001:00003290       ?_Copy@?$basic_string@DU?$char_traits@D@std@@V?$allocator@D@2@@std@@QAEXII@Z 10004290 f i DataHelper.obj
 0001:00003340       ?_Rrotate@?$_Tree@V?$_Tmap_traits@V?$basic_string@DU?$char_traits@D@std@@V?$allocator@D@2@@std@@VItemValue@@U?$less@V?$basic_string@DU?$char_traits@D@std@@V?$allocator@D@2@@std@@@2@V?$allocator@U?$pair@$$CBV?$basic_string@DU?$char_traits@D@std@@V?$allocator@D@2@@std@@VItemValue@@@std@@@2@$0A@@std@@@std@@IAEXPAU?$_Tree_node@U?$pair@$$CBV?$basic_string@DU?$char_traits@D@std@@V?$allocator@D@2@@std@@VItemValue@@@std@@PAX@2@@Z 10004340 f i DataHelper.obj
 0001:000033a0       ?_Lrotate@?$_Tree@V?$_Tmap_traits@V?$basic_string@DU?$char_traits@D@std@@V?$allocator@D@2@@std@@VItemValue@@U?$less@V?$basic_string@DU?$char_traits@D@std@@V?$allocator@D@2@@std@@@2@V?$allocator@U?$pair@$$CBV?$basic_string@DU?$char_traits@D@std@@V?$allocator@D@2@@std@@VItemValue@@@std@@@2@$0A@@std@@@std@@IAEXPAU?$_Tree_node@U?$pair@$$CBV?$basic_string@DU?$char_traits@D@std@@V?$allocator@D@2@@std@@VItemValue@@@std@@PAX@2@@Z 100043a0 f i DataHelper.obj
 0001:000033f0       ?_Erase@?$_Tree@V?$_Tmap_traits@V?$basic_string@DU?$char_traits@D@std@@V?$allocator@D@2@@std@@VItemValue@@U?$less@V?$basic_string@DU?$char_traits@D@std@@V?$allocator@D@2@@std@@@2@V?$allocator@U?$pair@$$CBV?$basic_string@DU?$char_traits@D@std@@V?$allocator@D@2@@std@@VItemValue@@@std@@@2@$0A@@std@@@std@@IAEXPAU?$_Tree_node@U?$pair@$$CBV?$basic_string@DU?$char_traits@D@std@@V?$allocator@D@2@@std@@VItemValue@@@std@@PAX@2@@Z 100043f0 f i DataHelper.obj
 0001:00003580       ?allocate@?$_Wrap_alloc@V?$allocator@D@std@@@std@@QAEPADI@Z 10004580 f i DataHelper.obj
 0001:000035e0       ??$use_facet@V?$ctype@D@std@@@std@@YAABV?$ctype@D@0@ABVlocale@0@@Z 100045e0 f i DataHelper.obj
 0001:000036e0       ??$_Immortalize@V_Iostream_error_category@std@@@std@@YAAAV_Iostream_error_category@0@XZ 100046e0 f i DataHelper.obj
 0001:00003750       ??$New@VNumber@v8@@N@Nan@@YA?AV?$Local@VNumber@v8@@@v8@@N@Z 10004750 f i DataHelper.obj
 0001:00003780       ??$New@VString@v8@@V?$basic_string@DU?$char_traits@D@std@@V?$allocator@D@2@@std@@@Nan@@YA?AV?$MaybeLocal@VString@v8@@@v8@@V?$basic_string@DU?$char_traits@D@std@@V?$allocator@D@2@@std@@@Z 10004780 f i DataHelper.obj
 0001:000037f0       ??$New@VObject@v8@@@Nan@@YA?AV?$Local@VObject@v8@@@v8@@XZ 100047f0 f i DataHelper.obj
 0001:00003810       ??$New@VArray@v8@@I@Nan@@YA?AV?$Local@VArray@v8@@@v8@@I@Z 10004810 f i DataHelper.obj
 0001:00003830       ??$New@VDate@v8@@N@Nan@@YA?AV?$MaybeLocal@VDate@v8@@@v8@@N@Z 10004830 f i DataHelper.obj
 0001:00003880       ??$?6U?$char_traits@D@std@@@std@@YAAAV?$basic_ostream@DU?$char_traits@D@std@@@0@AAV10@PBD@Z 10004880 f i DataHelper.obj
 0001:00003b50       ??$endl@DU?$char_traits@D@std@@@std@@YAAAV?$basic_ostream@DU?$char_traits@D@std@@@0@AAV10@@Z 10004b50 f i DataHelper.obj
 0001:00003bd0       ??$_Copy@U_Copy_tag@?$_Tree@V?$_Tmap_traits@V?$basic_string@DU?$char_traits@D@std@@V?$allocator@D@2@@std@@VItemValue@@U?$less@V?$basic_string@DU?$char_traits@D@std@@V?$allocator@D@2@@std@@@2@V?$allocator@U?$pair@$$CBV?$basic_string@DU?$char_traits@D@std@@V?$allocator@D@2@@std@@VItemValue@@@std@@@2@$0A@@std@@@std@@@?$_Tree@V?$_Tmap_traits@V?$basic_string@DU?$char_traits@D@std@@V?$allocator@D@2@@std@@VItemValue@@U?$less@V?$basic_string@DU?$char_traits@D@std@@V?$allocator@D@2@@std@@@2@V?$allocator@U?$pair@$$CBV?$basic_string@DU?$char_traits@D@std@@V?$allocator@D@2@@std@@VItemValue@@@std@@@2@$0A@@std@@@std@@IAEXABV01@U_Copy_tag@01@@Z 10004bd0 f i DataHelper.obj
 0001:00003c50       ??0sentry@?$basic_ostream@DU?$char_traits@D@std@@@std@@QAE@AAV12@@Z 10004c50 f i DataHelper.obj
 0001:00003cb0       ?flush@?$basic_ostream@DU?$char_traits@D@std@@@std@@QAEAAV12@XZ 10004cb0 f i DataHelper.obj
 0001:00003d70       ?put@?$basic_ostream@DU?$char_traits@D@std@@@std@@QAEAAV12@D@Z 10004d70 f i DataHelper.obj
 0001:00003e80       ?widen@?$basic_ios@DU?$char_traits@D@std@@@std@@QBEDD@Z 10004e80 f i DataHelper.obj
 0001:00003ef0       ??$_Copy_nodes@U_Copy_tag@?$_Tree@V?$_Tmap_traits@V?$basic_string@DU?$char_traits@D@std@@V?$allocator@D@2@@std@@VItemValue@@U?$less@V?$basic_string@DU?$char_traits@D@std@@V?$allocator@D@2@@std@@@2@V?$allocator@U?$pair@$$CBV?$basic_string@DU?$char_traits@D@std@@V?$allocator@D@2@@std@@VItemValue@@@std@@@2@$0A@@std@@@std@@@?$_Tree@V?$_Tmap_traits@V?$basic_string@DU?$char_traits@D@std@@V?$allocator@D@2@@std@@VItemValue@@U?$less@V?$basic_string@DU?$char_traits@D@std@@V?$allocator@D@2@@std@@@2@V?$allocator@U?$pair@$$CBV?$basic_string@DU?$char_traits@D@std@@V?$allocator@D@2@@std@@VItemValue@@@std@@@2@$0A@@std@@@std@@IAEPAU?$_Tree_node@U?$pair@$$CBV?$basic_string@DU?$char_traits@D@std@@V?$allocator@D@2@@std@@VItemValue@@@std@@PAX@1@PAU21@0U_Copy_tag@01@@Z 10004ef0 f i DataHelper.obj
 0001:00003f90       ??$_Destroy_range@U?$_Wrap_alloc@V?$allocator@V?$basic_string@DU?$char_traits@D@std@@V?$allocator@D@2@@std@@@std@@@std@@@std@@YAXPAV?$basic_string@DU?$char_traits@D@std@@V?$allocator@D@2@@0@0AAU?$_Wrap_alloc@V?$allocator@V?$basic_string@DU?$char_traits@D@std@@V?$allocator@D@2@@std@@@std@@@0@U_Nonscalar_ptr_iterator_tag@0@@Z 10004f90 f i DataHelper.obj
 0001:00004000       ??$_Uninit_copy@PBV?$basic_string@DU?$char_traits@D@std@@V?$allocator@D@2@@std@@PAV12@V?$allocator@V?$basic_string@DU?$char_traits@D@std@@V?$allocator@D@2@@std@@@2@@std@@YAPAV?$basic_string@DU?$char_traits@D@std@@V?$allocator@D@2@@0@PBV10@0PAV10@AAU?$_Wrap_alloc@V?$allocator@V?$basic_string@DU?$char_traits@D@std@@V?$allocator@D@2@@std@@@std@@@0@U_Nonscalar_ptr_iterator_tag@0@@Z 10005000 f i DataHelper.obj
 0001:00004000       ??$_Uninit_copy@PAV?$basic_string@DU?$char_traits@D@std@@V?$allocator@D@2@@std@@PAV12@V?$allocator@V?$basic_string@DU?$char_traits@D@std@@V?$allocator@D@2@@std@@@2@@std@@YAPAV?$basic_string@DU?$char_traits@D@std@@V?$allocator@D@2@@0@PAV10@00AAU?$_Wrap_alloc@V?$allocator@V?$basic_string@DU?$char_traits@D@std@@V?$allocator@D@2@@std@@@std@@@0@U_Nonscalar_ptr_iterator_tag@0@@Z 10005000 f i save_document_async.obj
 0001:00004050       ??0?$pair@$$CBV?$basic_string@DU?$char_traits@D@std@@V?$allocator@D@2@@std@@VItemValue@@@std@@QAE@ABU01@@Z 10005050 f i DataHelper.obj
 0001:000040d0       ??0Callback@Nan@@QAE@ABV?$Local@VFunction@v8@@@v8@@@Z 100050d0 f i delete_document_async.obj
 0001:000041a0       ??0AsyncWorker@Nan@@QAE@PAVCallback@1@@Z 100051a0 f i delete_document_async.obj
 0001:00004230       ??1AsyncWorker@Nan@@UAE@XZ 10005230 f i delete_document_async.obj
 0001:000042c0       ?WorkComplete@AsyncWorker@Nan@@UAEXXZ 100052c0 f i delete_document_async.obj
 0001:00004330       ?Destroy@AsyncWorker@Nan@@UAEXXZ 10005330 f i delete_document_async.obj
 0001:00004340       ?HandleOKCallback@AsyncWorker@Nan@@MAEXXZ 10005340 f i delete_document_async.obj
 0001:000043e0       ?HandleErrorCallback@AsyncWorker@Nan@@MAEXXZ 100053e0 f i delete_document_async.obj
 0001:000044d0       ?SetErrorMessage@AsyncWorker@Nan@@IAEXPBD@Z 100054d0 f i delete_document_async.obj
 0001:00004520       ??_GAsyncWorker@Nan@@UAEPAXI@Z 10005520 f i delete_document_async.obj
 0001:00004520       ??_EAsyncWorker@Nan@@UAEPAXI@Z 10005520 f i * CIL library *:* CIL module *
 0001:00004540       ?AsyncExecute@Nan@@YAXPAUuv_work_s@@@Z 10005540 f i delete_document_async.obj
 0001:00004550       ?AsyncExecuteComplete@Nan@@YAXPAUuv_work_s@@@Z 10005550 f i delete_document_async.obj
 0001:00004580       ?GetClassNameA@LNSmartPtr@@UBEPBDXZ 10005580 f i delete_document_async.obj
 0001:000045a0       ?GetSession@LNSmartPtr@@UBEPAVLNNotesSession@@XZ 100055a0 f i delete_document_async.obj
 0001:000045b0       ?IsNull@LNSmartPtr@@UBEHXZ 100055b0 f i delete_document_async.obj
 0001:000045c0       ??0LNString@@QAE@PBD@Z     100055c0 f i delete_document_async.obj
 0001:000045e0       ?GetClassID@LNString@@UBE?AW4LNCLASSID@@XZ 100055e0 f i delete_document_async.obj
 0001:000045f0       ?GetClassID@LNDatabase@@UBE?AW4LNCLASSID@@XZ 100055f0 f i delete_document_async.obj
 0001:00004600       ?GetDatabase@LNNotesSession@@QAEKPBDPAVLNDatabase@@ABVLNString@@@Z 10005600 f i delete_document_async.obj
 0001:00004650       ??0DeleteDocumentWorker@@QAE@PAVCallback@Nan@@V?$basic_string@DU?$char_traits@D@std@@V?$allocator@D@2@@std@@11@Z 10005650 f i delete_document_async.obj
 0001:00004750       ??1DeleteDocumentWorker@@UAE@XZ 10005750 f i delete_document_async.obj
 0001:000047f0       ?Execute@DeleteDocumentWorker@@UAEXXZ 100057f0 f i delete_document_async.obj
 0001:000049d0       ?HandleOKCallback@DeleteDocumentWorker@@UAEXXZ 100059d0 f i delete_document_async.obj
 0001:00004b40       ?HandleErrorCallback@SaveDocumentWorker@@UAEXXZ 10005b40 f i save_document_async.obj
 0001:00004b40       ?HandleErrorCallback@MakeResponseDocumentWorker@@UAEXXZ 10005b40 f i makeresponse_document.obj
 0001:00004b40       ?HandleErrorCallback@DocumentWorker@@UAEXXZ 10005b40 f i document_async.obj
 0001:00004b40       ?HandleErrorCallback@DeleteDocumentWorker@@UAEXXZ 10005b40 f i delete_document_async.obj
 0001:00004b40       ?HandleErrorCallback@ResponseDocumentsWorker@@UAEXXZ 10005b40 f i getresponse_documents.obj
 0001:00004b40       ?HandleErrorCallback@ViewWorker@@UAEXXZ 10005b40 f i view_async.obj
 0001:00004cb0       ??_GDeleteDocumentWorker@@UAEPAXI@Z 10005cb0 f i delete_document_async.obj
 0001:00004cb0       ??_EDeleteDocumentWorker@@UAEPAXI@Z 10005cb0 f i * CIL library *:* CIL module *
 0001:00004ce0       ?DeleteDocumentAsync@@YAXABV?$FunctionCallbackInfo@VValue@v8@@@Nan@@@Z 10005ce0 f   delete_document_async.obj
 0001:000051c0       ?compare@?$char_traits@D@std@@SAHPBD0I@Z 100061c0 f i document_async.obj
 0001:00005220       ??0ItemValue@@QAE@V?$basic_string@DU?$char_traits@D@std@@V?$allocator@D@2@@std@@@Z 10006220 f i document_async.obj
 0001:00005290       ??0DocumentWorker@@QAE@PAVCallback@Nan@@V?$basic_string@DU?$char_traits@D@std@@V?$allocator@D@2@@std@@11@Z 10006290 f i document_async.obj
 0001:000053e0       ??1DocumentWorker@@UAE@XZ  100063e0 f i document_async.obj
 0001:000054b0       ?Execute@DocumentWorker@@UAEXXZ 100064b0 f i document_async.obj
 0001:00005970       ?HandleOKCallback@DocumentWorker@@UAEXXZ 10006970 f i document_async.obj
 0001:00005970       ?HandleOKCallback@SaveDocumentWorker@@UAEXXZ 10006970 f i save_document_async.obj
 0001:00005aa0       ??_GDocumentWorker@@UAEPAXI@Z 10006aa0 f i document_async.obj
 0001:00005aa0       ??_EDocumentWorker@@UAEPAXI@Z 10006aa0 f i * CIL library *:* CIL module *
 0001:00005ad0       ??1?$pair@V?$basic_string@DU?$char_traits@D@std@@V?$allocator@D@2@@std@@VItemValue@@@std@@QAE@XZ 10006ad0 f i document_async.obj
 0001:00005b10       ?GetDocumentAsync@@YAXABV?$FunctionCallbackInfo@VValue@v8@@@Nan@@@Z 10006b10 f   document_async.obj
 0001:00005ff0       ??0?$map@V?$basic_string@DU?$char_traits@D@std@@V?$allocator@D@2@@std@@VItemValue@@U?$less@V?$basic_string@DU?$char_traits@D@std@@V?$allocator@D@2@@std@@@2@V?$allocator@U?$pair@$$CBV?$basic_string@DU?$char_traits@D@std@@V?$allocator@D@2@@std@@VItemValue@@@std@@@2@@std@@QAE@XZ 10006ff0 f i document_async.obj
 0001:00006040       ??4?$basic_string@DU?$char_traits@D@std@@V?$allocator@D@2@@std@@QAEAAV01@PBD@Z 10007040 f i document_async.obj
 0001:00006080       ??$make_pair@AAV?$basic_string@DU?$char_traits@D@std@@V?$allocator@D@2@@std@@VItemValue@@@std@@YA?AU?$pair@V?$basic_string@DU?$char_traits@D@std@@V?$allocator@D@2@@std@@VItemValue@@@0@AAV?$basic_string@DU?$char_traits@D@std@@V?$allocator@D@2@@0@$$QAVItemValue@@@Z 10007080 f i document_async.obj
 0001:000060b0       ??$insert@U?$pair@V?$basic_string@DU?$char_traits@D@std@@V?$allocator@D@2@@std@@VItemValue@@@std@@@?$_Tree@V?$_Tmap_traits@V?$basic_string@DU?$char_traits@D@std@@V?$allocator@D@2@@std@@VItemValue@@U?$less@V?$basic_string@DU?$char_traits@D@std@@V?$allocator@D@2@@std@@@2@V?$allocator@U?$pair@$$CBV?$basic_string@DU?$char_traits@D@std@@V?$allocator@D@2@@std@@VItemValue@@@std@@@2@$0A@@std@@@std@@QAE?AU?$pair@V?$_Tree_iterator@V?$_Tree_val@U?$_Tree_simple_types@U?$pair@$$CBV?$basic_string@DU?$char_traits@D@std@@V?$allocator@D@2@@std@@VItemValue@@@std@@@std@@@std@@@std@@_N@1@$$QAU?$pair@V?$basic_string@DU?$char_traits@D@std@@V?$allocator@D@2@@std@@VItemValue@@@1@@Z 100070b0 f i document_async.obj
 0001:00006120       ??$_Buynode@U?$pair@PBDVItemValue@@@std@@@?$_Tree_comp_alloc@V?$_Tmap_traits@V?$basic_string@DU?$char_traits@D@std@@V?$allocator@D@2@@std@@VItemValue@@U?$less@V?$basic_string@DU?$char_traits@D@std@@V?$allocator@D@2@@std@@@2@V?$allocator@U?$pair@$$CBV?$basic_string@DU?$char_traits@D@std@@V?$allocator@D@2@@std@@VItemValue@@@std@@@2@$0A@@std@@@std@@QAEPAU?$_Tree_node@U?$pair@$$CBV?$basic_string@DU?$char_traits@D@std@@V?$allocator@D@2@@std@@VItemValue@@@std@@PAX@1@$$QAU?$pair@PBDVItemValue@@@1@@Z 10007120 f i document_async.obj
 0001:000061b0       ??$_Insert_nohint@AAU?$pair@$$CBV?$basic_string@DU?$char_traits@D@std@@V?$allocator@D@2@@std@@VItemValue@@@std@@PAU?$_Tree_node@U?$pair@$$CBV?$basic_string@DU?$char_traits@D@std@@V?$allocator@D@2@@std@@VItemValue@@@std@@PAX@2@@?$_Tree@V?$_Tmap_traits@V?$basic_string@DU?$char_traits@D@std@@V?$allocator@D@2@@std@@VItemValue@@U?$less@V?$basic_string@DU?$char_traits@D@std@@V?$allocator@D@2@@std@@@2@V?$allocator@U?$pair@$$CBV?$basic_string@DU?$char_traits@D@std@@V?$allocator@D@2@@std@@VItemValue@@@std@@@2@$0A@@std@@@std@@IAE?AU?$pair@V?$_Tree_iterator@V?$_Tree_val@U?$_Tree_simple_types@U?$pair@$$CBV?$basic_string@DU?$char_traits@D@std@@V?$allocator@D@2@@std@@VItemValue@@@std@@@std@@@std@@@std@@_N@1@_NAAU?$pair@$$CBV?$basic_string@DU?$char_traits@D@std@@V?$allocator@D@2@@std@@VItemValue@@@1@PAU?$_Tree_node@U?$pair@$$CBV?$basic_string@DU?$char_traits@D@std@@V?$allocator@D@2@@std@@VItemValue@@@std@@PAX@1@@Z 100071b0 f i document_async.obj
 0001:00006320       ??0ItemValue@@QAE@$$QAV0@@Z 10007320 f i document_async.obj
 0001:000063f0       ?_Destroy_if_not_nil@?$_Tree@V?$_Tmap_traits@V?$basic_string@DU?$char_traits@D@std@@V?$allocator@D@2@@std@@VItemValue@@U?$less@V?$basic_string@DU?$char_traits@D@std@@V?$allocator@D@2@@std@@@2@V?$allocator@U?$pair@$$CBV?$basic_string@DU?$char_traits@D@std@@V?$allocator@D@2@@std@@VItemValue@@@std@@@2@$0A@@std@@@std@@IAEXPAU?$_Tree_node@U?$pair@$$CBV?$basic_string@DU?$char_traits@D@std@@V?$allocator@D@2@@std@@VItemValue@@@std@@PAX@2@@Z 100073f0 f i document_async.obj
 0001:00006440       ??R?$less@V?$basic_string@DU?$char_traits@D@std@@V?$allocator@D@2@@std@@@std@@QBE_NABV?$basic_string@DU?$char_traits@D@std@@V?$allocator@D@2@@1@0@Z 10007440 f i document_async.obj
 0001:000064a0       ??F?$_Tree_unchecked_const_iterator@V?$_Tree_val@U?$_Tree_simple_types@U?$pair@$$CBV?$basic_string@DU?$char_traits@D@std@@V?$allocator@D@2@@std@@VItemValue@@@std@@@std@@@std@@U_Iterator_base0@2@@std@@QAEAAV01@XZ 100074a0 f i document_async.obj
 0001:00006500       ??$_Insert_at@AAU?$pair@$$CBV?$basic_string@DU?$char_traits@D@std@@V?$allocator@D@2@@std@@VItemValue@@@std@@PAU?$_Tree_node@U?$pair@$$CBV?$basic_string@DU?$char_traits@D@std@@V?$allocator@D@2@@std@@VItemValue@@@std@@PAX@2@@?$_Tree@V?$_Tmap_traits@V?$basic_string@DU?$char_traits@D@std@@V?$allocator@D@2@@std@@VItemValue@@U?$less@V?$basic_string@DU?$char_traits@D@std@@V?$allocator@D@2@@std@@@2@V?$allocator@U?$pair@$$CBV?$basic_string@DU?$char_traits@D@std@@V?$allocator@D@2@@std@@VItemValue@@@std@@@2@$0A@@std@@@std@@IAE?AV?$_Tree_iterator@V?$_Tree_val@U?$_Tree_simple_types@U?$pair@$$CBV?$basic_string@DU?$char_traits@D@std@@V?$allocator@D@2@@std@@VItemValue@@@std@@@std@@@std@@@1@_NPAU?$_Tree_node@U?$pair@$$CBV?$basic_string@DU?$char_traits@D@std@@V?$allocator@D@2@@std@@VItemValue@@@std@@PAX@1@AAU?$pair@$$CBV?$basic_string@DU?$char_traits@D@std@@V?$allocator@D@2@@std@@VItemValue@@@1@1@Z 10007500 f i document_async.obj
 0001:00006710       ??$?0V?$basic_string@DU?$char_traits@D@std@@V?$allocator@D@2@@std@@VItemValue@@X@?$pair@$$CBV?$basic_string@DU?$char_traits@D@std@@V?$allocator@D@2@@std@@VItemValue@@@std@@QAE@$$QAU?$pair@V?$basic_string@DU?$char_traits@D@std@@V?$allocator@D@2@@std@@VItemValue@@@1@@Z 10007710 f i document_async.obj
 0001:00006780       ?GetSession@LNNoteArray@@UBEPAVLNNotesSession@@XZ 10007780 f i getresponse_documents.obj
 0001:00006790       ?GetClassID@LNDocumentArray@@UBE?AW4LNCLASSID@@XZ 10007790 f i getresponse_documents.obj
 0001:000067a0       ??_ELNDocumentArray@@UAEPAXI@Z 100077a0 f i * CIL library *:* CIL module *
 0001:000067a0       ??_GLNDocumentArray@@UAEPAXI@Z 100077a0 f i getresponse_documents.obj
 0001:000067d0       ??0ResponseDocumentsWorker@@QAE@PAVCallback@Nan@@V?$basic_string@DU?$char_traits@D@std@@V?$allocator@D@2@@std@@11@Z 100077d0 f i getresponse_documents.obj
 0001:000068f0       ??1ResponseDocumentsWorker@@UAE@XZ 100078f0 f i getresponse_documents.obj
 0001:000069a0       ?Execute@ResponseDocumentsWorker@@UAEXXZ 100079a0 f i getresponse_documents.obj
 0001:000070c0       ?HandleOKCallback@ResponseDocumentsWorker@@UAEXXZ 100080c0 f i getresponse_documents.obj
 0001:000071a0       ??_EResponseDocumentsWorker@@UAEPAXI@Z 100081a0 f i * CIL library *:* CIL module *
 0001:000071a0       ??_GResponseDocumentsWorker@@UAEPAXI@Z 100081a0 f i getresponse_documents.obj
 0001:000071d0       ?GetResponseDocumentsAsync@@YAXABV?$FunctionCallbackInfo@VValue@v8@@@Nan@@@Z 100081d0 f   getresponse_documents.obj
 0001:000076b0       ?push_back@?$vector@V?$map@V?$basic_string@DU?$char_traits@D@std@@V?$allocator@D@2@@std@@VItemValue@@U?$less@V?$basic_string@DU?$char_traits@D@std@@V?$allocator@D@2@@std@@@2@V?$allocator@U?$pair@$$CBV?$basic_string@DU?$char_traits@D@std@@V?$allocator@D@2@@std@@VItemValue@@@std@@@2@@std@@V?$allocator@V?$map@V?$basic_string@DU?$char_traits@D@std@@V?$allocator@D@2@@std@@VItemValue@@U?$less@V?$basic_string@DU?$char_traits@D@std@@V?$allocator@D@2@@std@@@2@V?$allocator@U?$pair@$$CBV?$basic_string@DU?$char_traits@D@std@@V?$allocator@D@2@@std@@VItemValue@@@std@@@2@@std@@@2@@std@@QAEXABV?$map@V?$basic_string@DU?$char_traits@D@std@@V?$allocator@D@2@@std@@VItemValue@@U?$less@V?$basic_string@DU?$char_traits@D@std@@V?$allocator@D@2@@std@@@2@V?$allocator@U?$pair@$$CBV?$basic_string@DU?$char_traits@D@std@@V?$allocator@D@2@@std@@VItemValue@@@std@@@2@@2@@Z 100086b0 f i getresponse_documents.obj
 0001:00007710       ??0?$vector@V?$map@V?$basic_string@DU?$char_traits@D@std@@V?$allocator@D@2@@std@@VItemValue@@U?$less@V?$basic_string@DU?$char_traits@D@std@@V?$allocator@D@2@@std@@@2@V?$allocator@U?$pair@$$CBV?$basic_string@DU?$char_traits@D@std@@V?$allocator@D@2@@std@@VItemValue@@@std@@@2@@std@@V?$allocator@V?$map@V?$basic_string@DU?$char_traits@D@std@@V?$allocator@D@2@@std@@VItemValue@@U?$less@V?$basic_string@DU?$char_traits@D@std@@V?$allocator@D@2@@std@@@2@V?$allocator@U?$pair@$$CBV?$basic_string@DU?$char_traits@D@std@@V?$allocator@D@2@@std@@VItemValue@@@std@@@2@@std@@@2@@std@@QAE@ABV01@@Z 10008710 f i getresponse_documents.obj
 0001:00007790       ?_Reserve@?$vector@V?$map@V?$basic_string@DU?$char_traits@D@std@@V?$allocator@D@2@@std@@VItemValue@@U?$less@V?$basic_string@DU?$char_traits@D@std@@V?$allocator@D@2@@std@@@2@V?$allocator@U?$pair@$$CBV?$basic_string@DU?$char_traits@D@std@@V?$allocator@D@2@@std@@VItemValue@@@std@@@2@@std@@V?$allocator@V?$map@V?$basic_string@DU?$char_traits@D@std@@V?$allocator@D@2@@std@@VItemValue@@U?$less@V?$basic_string@DU?$char_traits@D@std@@V?$allocator@D@2@@std@@@2@V?$allocator@U?$pair@$$CBV?$basic_string@DU?$char_traits@D@std@@V?$allocator@D@2@@std@@VItemValue@@@std@@@2@@std@@@2@@std@@IAEXI@Z 10008790 f i getresponse_documents.obj
 0001:00007800       ?_Reallocate@?$vector@V?$map@V?$basic_string@DU?$char_traits@D@std@@V?$allocator@D@2@@std@@VItemValue@@U?$less@V?$basic_string@DU?$char_traits@D@std@@V?$allocator@D@2@@std@@@2@V?$allocator@U?$pair@$$CBV?$basic_string@DU?$char_traits@D@std@@V?$allocator@D@2@@std@@VItemValue@@@std@@@2@@std@@V?$allocator@V?$map@V?$basic_string@DU?$char_traits@D@std@@V?$allocator@D@2@@std@@VItemValue@@U?$less@V?$basic_string@DU?$char_traits@D@std@@V?$allocator@D@2@@std@@@2@V?$allocator@U?$pair@$$CBV?$basic_string@DU?$char_traits@D@std@@V?$allocator@D@2@@std@@VItemValue@@@std@@@2@@std@@@2@@std@@IAEXI@Z 10008800 f i getresponse_documents.obj
 0001:000078f0       ?allocate@?$allocator@V?$map@V?$basic_string@DU?$char_traits@D@std@@V?$allocator@D@2@@std@@VItemValue@@U?$less@V?$basic_string@DU?$char_traits@D@std@@V?$allocator@D@2@@std@@@2@V?$allocator@U?$pair@$$CBV?$basic_string@DU?$char_traits@D@std@@V?$allocator@D@2@@std@@VItemValue@@@std@@@2@@std@@@std@@QAEPAV?$map@V?$basic_string@DU?$char_traits@D@std@@V?$allocator@D@2@@std@@VItemValue@@U?$less@V?$basic_string@DU?$char_traits@D@std@@V?$allocator@D@2@@std@@@2@V?$allocator@U?$pair@$$CBV?$basic_string@DU?$char_traits@D@std@@V?$allocator@D@2@@std@@VItemValue@@@std@@@2@@2@I@Z 100088f0 f i getresponse_documents.obj
 0001:00007960       ??$construct@V?$map@V?$basic_string@DU?$char_traits@D@std@@V?$allocator@D@2@@std@@VItemValue@@U?$less@V?$basic_string@DU?$char_traits@D@std@@V?$allocator@D@2@@std@@@2@V?$allocator@U?$pair@$$CBV?$basic_string@DU?$char_traits@D@std@@V?$allocator@D@2@@std@@VItemValue@@@std@@@2@@std@@AAV12@@?$_Wrap_alloc@V?$allocator@V?$map@V?$basic_string@DU?$char_traits@D@std@@V?$allocator@D@2@@std@@VItemValue@@U?$less@V?$basic_string@DU?$char_traits@D@std@@V?$allocator@D@2@@std@@@2@V?$allocator@U?$pair@$$CBV?$basic_string@DU?$char_traits@D@std@@V?$allocator@D@2@@std@@VItemValue@@@std@@@2@@std@@@std@@@std@@QAEXPAV?$map@V?$basic_string@DU?$char_traits@D@std@@V?$allocator@D@2@@std@@VItemValue@@U?$less@V?$basic_string@DU?$char_traits@D@std@@V?$allocator@D@2@@std@@@2@V?$allocator@U?$pair@$$CBV?$basic_string@DU?$char_traits@D@std@@V?$allocator@D@2@@std@@VItemValue@@@std@@@2@@1@AAV21@@Z 10008960 f i getresponse_documents.obj
 0001:00007960       ??$construct@V?$map@V?$basic_string@DU?$char_traits@D@std@@V?$allocator@D@2@@std@@VItemValue@@U?$less@V?$basic_string@DU?$char_traits@D@std@@V?$allocator@D@2@@std@@@2@V?$allocator@U?$pair@$$CBV?$basic_string@DU?$char_traits@D@std@@V?$allocator@D@2@@std@@VItemValue@@@std@@@2@@std@@ABV12@@?$_Wrap_alloc@V?$allocator@V?$map@V?$basic_string@DU?$char_traits@D@std@@V?$allocator@D@2@@std@@VItemValue@@U?$less@V?$basic_string@DU?$char_traits@D@std@@V?$allocator@D@2@@std@@@2@V?$allocator@U?$pair@$$CBV?$basic_string@DU?$char_traits@D@std@@V?$allocator@D@2@@std@@VItemValue@@@std@@@2@@std@@@std@@@std@@QAEXPAV?$map@V?$basic_string@DU?$char_traits@D@std@@V?$allocator@D@2@@std@@VItemValue@@U?$less@V?$basic_string@DU?$char_traits@D@std@@V?$allocator@D@2@@std@@@2@V?$allocator@U?$pair@$$CBV?$basic_string@DU?$char_traits@D@std@@V?$allocator@D@2@@std@@VItemValue@@@std@@@2@@1@ABV21@@Z 10008960 f i getresponse_documents.obj
 0001:000079c0       ??$_Uninit_copy@PBV?$map@V?$basic_string@DU?$char_traits@D@std@@V?$allocator@D@2@@std@@VItemValue@@U?$less@V?$basic_string@DU?$char_traits@D@std@@V?$allocator@D@2@@std@@@2@V?$allocator@U?$pair@$$CBV?$basic_string@DU?$char_traits@D@std@@V?$allocator@D@2@@std@@VItemValue@@@std@@@2@@std@@PAV12@V?$allocator@V?$map@V?$basic_string@DU?$char_traits@D@std@@V?$allocator@D@2@@std@@VItemValue@@U?$less@V?$basic_string@DU?$char_traits@D@std@@V?$allocator@D@2@@std@@@2@V?$allocator@U?$pair@$$CBV?$basic_string@DU?$char_traits@D@std@@V?$allocator@D@2@@std@@VItemValue@@@std@@@2@@std@@@2@@std@@YAPAV?$map@V?$basic_string@DU?$char_traits@D@std@@V?$allocator@D@2@@std@@VItemValue@@U?$less@V?$basic_string@DU?$char_traits@D@std@@V?$allocator@D@2@@std@@@2@V?$allocator@U?$pair@$$CBV?$basic_string@DU?$char_traits@D@std@@V?$allocator@D@2@@std@@VItemValue@@@std@@@2@@0@PBV10@0PAV10@AAU?$_Wrap_alloc@V?$allocator@V?$map@V?$basic_string@DU?$char_traits@D@std@@V?$allocator@D@2@@std@@VItemValue@@U?$less@V?$basic_string@DU?$char_traits@D@std@@V?$allocator@D@2@@std@@@2@V?$allocator@U?$pair@$$CBV?$basic_string@DU?$char_traits@D@std@@V?$allocator@D@2@@std@@VItemValue@@@std@@@2@@std@@@std@@@0@U_Nonscalar_ptr_iterator_tag@0@@Z 100089c0 f i getresponse_documents.obj
 0001:00007a30       ??$_Uninit_move@PAV?$map@V?$basic_string@DU?$char_traits@D@std@@V?$allocator@D@2@@std@@VItemValue@@U?$less@V?$basic_string@DU?$char_traits@D@std@@V?$allocator@D@2@@std@@@2@V?$allocator@U?$pair@$$CBV?$basic_string@DU?$char_traits@D@std@@V?$allocator@D@2@@std@@VItemValue@@@std@@@2@@std@@PAV12@V?$allocator@V?$map@V?$basic_string@DU?$char_traits@D@std@@V?$allocator@D@2@@std@@VItemValue@@U?$less@V?$basic_string@DU?$char_traits@D@std@@V?$allocator@D@2@@std@@@2@V?$allocator@U?$pair@$$CBV?$basic_string@DU?$char_traits@D@std@@V?$allocator@D@2@@std@@VItemValue@@@std@@@2@@std@@@2@V12@@std@@YAPAV?$map@V?$basic_string@DU?$char_traits@D@std@@V?$allocator@D@2@@std@@VItemValue@@U?$less@V?$basic_string@DU?$char_traits@D@std@@V?$allocator@D@2@@std@@@2@V?$allocator@U?$pair@$$CBV?$basic_string@DU?$char_traits@D@std@@V?$allocator@D@2@@std@@VItemValue@@@std@@@2@@0@PAV10@00AAU?$_Wrap_alloc@V?$allocator@V?$map@V?$basic_string@DU?$char_traits@D@std@@V?$allocator@D@2@@std@@VItemValue@@U?$less@V?$basic_string@DU?$char_traits@D@std@@V?$allocator@D@2@@std@@@2@V?$allocator@U?$pair@$$CBV?$basic_string@DU?$char_traits@D@std@@V?$allocator@D@2@@std@@VItemValue@@@std@@@2@@std@@@std@@@0@0U_Nonscalar_ptr_iterator_tag@0@@Z 10008a30 f i getresponse_documents.obj
 0001:00007ab0       ?IsBody@LNNotesClass@@UBEHXZ 10008ab0 f i ItemValue.obj
 0001:00007ab0       ?Close@LNNotesClass@@UAEKXZ 10008ab0 f i ItemValue.obj
 0001:00007ab0       ?sync@?$basic_streambuf@DU?$char_traits@D@std@@@std@@MAEHXZ 10008ab0 f i libcpmt:cout.obj
 0001:00007ac0       ?GetClassNameA@LNNotesClass@@UBEPBDXZ 10008ac0 f i ItemValue.obj
 0001:00007ae0       ?GetSession@LNNotesClass@@UBEPAVLNNotesSession@@XZ 10008ae0 f i ItemValue.obj
 0001:00007af0       ?GetClassID@LNDatetime@@UBE?AW4LNCLASSID@@XZ 10008af0 f i ItemValue.obj
 0001:00007b00       ??_ELNDatetime@@UAEPAXI@Z  10008b00 f i * CIL library *:* CIL module *
 0001:00007b00       ??_GLNDatetime@@UAEPAXI@Z  10008b00 f i ItemValue.obj
 0001:00007b40       ?GetClassID@LNDatetimes@@UBE?AW4LNCLASSID@@XZ 10008b40 f i ItemValue.obj
 0001:00007b50       ?GetClassID@LNNumbers@@UBE?AW4LNCLASSID@@XZ 10008b50 f i ItemValue.obj
 0001:00007b60       ?GetClassID@LNText@@UBE?AW4LNCLASSID@@XZ 10008b60 f i ItemValue.obj
 0001:00007b70       ?TextItem@ItemValue@@QAEXPAVLNItem@@@Z 10008b70 f   ItemValue.obj
 0001:00007e50       ??0ItemValue@@QAE@PAVLNItem@@@Z 10008e50 f   ItemValue.obj
 0001:00007fd0       ?DateValue@ItemValue@@QAEXPAVLNDatetime@@@Z 10008fd0 f   ItemValue.obj
 0001:00008100       ?push_back@?$vector@V?$basic_string@DU?$char_traits@D@std@@V?$allocator@D@2@@std@@V?$allocator@V?$basic_string@DU?$char_traits@D@std@@V?$allocator@D@2@@std@@@2@@std@@QAEX$$QAV?$basic_string@DU?$char_traits@D@std@@V?$allocator@D@2@@2@@Z 10009100 f i ItemValue.obj
 0001:00008180       ?_Reserve@?$vector@V?$basic_string@DU?$char_traits@D@std@@V?$allocator@D@2@@std@@V?$allocator@V?$basic_string@DU?$char_traits@D@std@@V?$allocator@D@2@@std@@@2@@std@@IAEXI@Z 10009180 f i ItemValue.obj
 0001:00008210       ?_Reallocate@?$vector@V?$basic_string@DU?$char_traits@D@std@@V?$allocator@D@2@@std@@V?$allocator@V?$basic_string@DU?$char_traits@D@std@@V?$allocator@D@2@@std@@@2@@std@@IAEXI@Z 10009210 f i ItemValue.obj
 0001:000082b0       ??$_Uninit_move@PAV?$basic_string@DU?$char_traits@D@std@@V?$allocator@D@2@@std@@PAV12@V?$allocator@V?$basic_string@DU?$char_traits@D@std@@V?$allocator@D@2@@std@@@2@V12@@std@@YAPAV?$basic_string@DU?$char_traits@D@std@@V?$allocator@D@2@@0@PAV10@00AAU?$_Wrap_alloc@V?$allocator@V?$basic_string@DU?$char_traits@D@std@@V?$allocator@D@2@@std@@@std@@@0@0U_Nonscalar_ptr_iterator_tag@0@@Z 100092b0 f i ItemValue.obj
 0001:00008330       ??0MakeResponseDocumentWorker@@QAE@PAVCallback@Nan@@V?$basic_string@DU?$char_traits@D@std@@V?$allocator@D@2@@std@@111@Z 10009330 f i makeresponse_document.obj
 0001:00008480       ??1MakeResponseDocumentWorker@@UAE@XZ 10009480 f i makeresponse_document.obj
 0001:00008540       ?Execute@MakeResponseDocumentWorker@@UAEXXZ 10009540 f i makeresponse_document.obj
 0001:00008790       ?HandleOKCallback@MakeResponseDocumentWorker@@UAEXXZ 10009790 f i makeresponse_document.obj
 0001:00008900       ??_EMakeResponseDocumentWorker@@UAEPAXI@Z 10009900 f i * CIL library *:* CIL module *
 0001:00008900       ??_GMakeResponseDocumentWorker@@UAEPAXI@Z 10009900 f i makeresponse_document.obj
 0001:00008930       ?MakeResponseDocumentAsync@@YAXABV?$FunctionCallbackInfo@VValue@v8@@@Nan@@@Z 10009930 f   makeresponse_document.obj
 0001:00008fb0       ?GetClassID@LNItem@@UBE?AW4LNCLASSID@@XZ 10009fb0 f i replicate_database_async.obj
 0001:00008fc0       ??0ReplicateDatabaseWorker@@QAE@PAVCallback@Nan@@V?$basic_string@DU?$char_traits@D@std@@V?$allocator@D@2@@std@@1@Z 10009fc0 f i replicate_database_async.obj
 0001:00009090       ??1ReplicateDatabaseWorker@@UAE@XZ 1000a090 f i replicate_database_async.obj
 0001:00009130       ?Execute@ReplicateDatabaseWorker@@UAEXXZ 1000a130 f i replicate_database_async.obj
 0001:00009380       ?HandleOKCallback@ReplicateDatabaseWorker@@UAEXXZ 1000a380 f i replicate_database_async.obj
 0001:00009570       ??_GReplicateDatabaseWorker@@UAEPAXI@Z 1000a570 f i replicate_database_async.obj
 0001:00009570       ??_EReplicateDatabaseWorker@@UAEPAXI@Z 1000a570 f i * CIL library *:* CIL module *
 0001:000095a0       ?ReplicateDatabaseAsync@@YAXABV?$FunctionCallbackInfo@VValue@v8@@@Nan@@@Z 1000a5a0 f   replicate_database_async.obj
 0001:00009900       ??$?6DU?$char_traits@D@std@@V?$allocator@D@1@@std@@YAAAV?$basic_ostream@DU?$char_traits@D@std@@@0@AAV10@ABV?$basic_string@DU?$char_traits@D@std@@V?$allocator@D@2@@0@@Z 1000a900 f i replicate_database_async.obj
 0001:00009b80       ??0ItemValue@@QAE@V?$vector@V?$basic_string@DU?$char_traits@D@std@@V?$allocator@D@2@@std@@V?$allocator@V?$basic_string@DU?$char_traits@D@std@@V?$allocator@D@2@@std@@@2@@std@@@Z 1000ab80 f i save_document_async.obj
 0001:00009c00       ??0SaveDocumentWorker@@QAE@PAVCallback@Nan@@V?$basic_string@DU?$char_traits@D@std@@V?$allocator@D@2@@std@@1V?$map@V?$basic_string@DU?$char_traits@D@std@@V?$allocator@D@2@@std@@VItemValue@@U?$less@V?$basic_string@DU?$char_traits@D@std@@V?$allocator@D@2@@std@@@2@V?$allocator@U?$pair@$$CBV?$basic_string@DU?$char_traits@D@std@@V?$allocator@D@2@@std@@VItemValue@@@std@@@2@@4@@Z 1000ac00 f i save_document_async.obj
 0001:00009d60       ??1SaveDocumentWorker@@UAE@XZ 1000ad60 f i save_document_async.obj
 0001:00009e30       ?Execute@SaveDocumentWorker@@UAEXXZ 1000ae30 f i save_document_async.obj
 0001:0000a8d0       ??_GSaveDocumentWorker@@UAEPAXI@Z 1000b8d0 f i save_document_async.obj
 0001:0000a8d0       ??_ESaveDocumentWorker@@UAEPAXI@Z 1000b8d0 f i * CIL library *:* CIL module *
 0001:0000a900       ?SaveDocumentAsync@@YAXABV?$FunctionCallbackInfo@VValue@v8@@@Nan@@@Z 1000b900 f   save_document_async.obj
 0001:0000b590       ?find@?$_Tree@V?$_Tmap_traits@V?$basic_string@DU?$char_traits@D@std@@V?$allocator@D@2@@std@@VItemValue@@U?$less@V?$basic_string@DU?$char_traits@D@std@@V?$allocator@D@2@@std@@@2@V?$allocator@U?$pair@$$CBV?$basic_string@DU?$char_traits@D@std@@V?$allocator@D@2@@std@@VItemValue@@@std@@@2@$0A@@std@@@std@@QAE?AV?$_Tree_iterator@V?$_Tree_val@U?$_Tree_simple_types@U?$pair@$$CBV?$basic_string@DU?$char_traits@D@std@@V?$allocator@D@2@@std@@VItemValue@@@std@@@std@@@std@@@2@ABV?$basic_string@DU?$char_traits@D@std@@V?$allocator@D@2@@2@@Z 1000c590 f i save_document_async.obj
 0001:0000b620       ??4?$vector@V?$basic_string@DU?$char_traits@D@std@@V?$allocator@D@2@@std@@V?$allocator@V?$basic_string@DU?$char_traits@D@std@@V?$allocator@D@2@@std@@@2@@std@@QAEAAV01@ABV01@@Z 1000c620 f i save_document_async.obj
 0001:0000b7a0       ??$_Copy_impl@PAV?$basic_string@DU?$char_traits@D@std@@V?$allocator@D@2@@std@@PAV12@@std@@YAPAV?$basic_string@DU?$char_traits@D@std@@V?$allocator@D@2@@0@PAV10@00@Z 1000c7a0 f i save_document_async.obj
 0001:0000b7d0       ??$_Lbound@V?$basic_string@DU?$char_traits@D@std@@V?$allocator@D@2@@std@@@?$_Tree@V?$_Tmap_traits@V?$basic_string@DU?$char_traits@D@std@@V?$allocator@D@2@@std@@VItemValue@@U?$less@V?$basic_string@DU?$char_traits@D@std@@V?$allocator@D@2@@std@@@2@V?$allocator@U?$pair@$$CBV?$basic_string@DU?$char_traits@D@std@@V?$allocator@D@2@@std@@VItemValue@@@std@@@2@$0A@@std@@@std@@IBEPAU?$_Tree_node@U?$pair@$$CBV?$basic_string@DU?$char_traits@D@std@@V?$allocator@D@2@@std@@VItemValue@@@std@@PAX@1@ABV?$basic_string@DU?$char_traits@D@std@@V?$allocator@D@2@@1@@Z 1000c7d0 f i save_document_async.obj
 0001:0000b8b0       ___local_stdio_printf_options 1000c8b0 f i view_async.obj
 0001:0000b8c0       _sprintf_s                 1000c8c0 f i view_async.obj
 0001:0000b900       ?IsNull@LNNote@@UBEHXZ     1000c900 f i view_async.obj
 0001:0000b920       ?CreateNoteBody@LNNote@@MAEKK@Z 1000c920 f i view_async.obj
 0001:0000b930       ?GetClassID@LNViewFolder@@UBE?AW4LNCLASSID@@XZ 1000c930 f i view_async.obj
 0001:0000b940       ?GetClassID@LNVFColumn@@UBE?AW4LNCLASSID@@XZ 1000c940 f i view_async.obj
 0001:0000b950       ?GetClassID@LNVFEntry@@UBE?AW4LNCLASSID@@XZ 1000c950 f i view_async.obj
 0001:0000b960       ?GetClassID@LNVFNavigator@@UBE?AW4LNCLASSID@@XZ 1000c960 f i view_async.obj
 0001:0000b970       ??0ViewWorker@@QAE@PAVCallback@Nan@@V?$basic_string@DU?$char_traits@D@std@@V?$allocator@D@2@@std@@1111@Z 1000c970 f i view_async.obj
 0001:0000bb30       ??1ViewWorker@@UAE@XZ      1000cb30 f i view_async.obj
 0001:0000bc30       ?Execute@ViewWorker@@UAEXXZ 1000cc30 f i view_async.obj
 0001:0000c5f0       ?HandleOKCallback@ViewWorker@@UAEXXZ 1000d5f0 f i view_async.obj
 0001:0000c6d0       ??_EViewWorker@@UAEPAXI@Z  1000d6d0 f i * CIL library *:* CIL module *
 0001:0000c6d0       ??_GViewWorker@@UAEPAXI@Z  1000d6d0 f i view_async.obj
 0001:0000c700       ?GetViewAsync@@YAXABV?$FunctionCallbackInfo@VValue@v8@@@Nan@@@Z 1000d700 f   view_async.obj
 0001:0000cf70       ??6?$basic_ostream@DU?$char_traits@D@std@@@std@@QAEAAV01@K@Z 1000df70 f i view_async.obj
 0001:0000d0b0       ?do_put@?$num_put@DV?$ostreambuf_iterator@DU?$char_traits@D@std@@@std@@@std@@MBE?AV?$ostreambuf_iterator@DU?$char_traits@D@std@@@2@V32@AAVios_base@2@DPBX@Z 1000e0b0 f i view_async.obj
 0001:0000d120       ?do_put@?$num_put@DV?$ostreambuf_iterator@DU?$char_traits@D@std@@@std@@@std@@MBE?AV?$ostreambuf_iterator@DU?$char_traits@D@std@@@2@V32@AAVios_base@2@DO@Z 1000e120 f i view_async.obj
 0001:0000d2d0       ?do_put@?$num_put@DV?$ostreambuf_iterator@DU?$char_traits@D@std@@@std@@@std@@MBE?AV?$ostreambuf_iterator@DU?$char_traits@D@std@@@2@V32@AAVios_base@2@DN@Z 1000e2d0 f i view_async.obj
 0001:0000d480       ?do_put@?$num_put@DV?$ostreambuf_iterator@DU?$char_traits@D@std@@@std@@@std@@MBE?AV?$ostreambuf_iterator@DU?$char_traits@D@std@@@2@V32@AAVios_base@2@D_K@Z 1000e480 f i view_async.obj
 0001:0000d500       ?do_put@?$num_put@DV?$ostreambuf_iterator@DU?$char_traits@D@std@@@std@@@std@@MBE?AV?$ostreambuf_iterator@DU?$char_traits@D@std@@@2@V32@AAVios_base@2@D_J@Z 1000e500 f i view_async.obj
 0001:0000d580       ?do_put@?$num_put@DV?$ostreambuf_iterator@DU?$char_traits@D@std@@@std@@@std@@MBE?AV?$ostreambuf_iterator@DU?$char_traits@D@std@@@2@V32@AAVios_base@2@DK@Z 1000e580 f i view_async.obj
 0001:0000d600       ?do_put@?$num_put@DV?$ostreambuf_iterator@DU?$char_traits@D@std@@@std@@@std@@MBE?AV?$ostreambuf_iterator@DU?$char_traits@D@std@@@2@V32@AAVios_base@2@DJ@Z 1000e600 f i view_async.obj
 0001:0000d680       ?do_put@?$num_put@DV?$ostreambuf_iterator@DU?$char_traits@D@std@@@std@@@std@@MBE?AV?$ostreambuf_iterator@DU?$char_traits@D@std@@@2@V32@AAVios_base@2@D_N@Z 1000e680 f i view_async.obj
 0001:0000d840       ?assign@?$basic_string@DU?$char_traits@D@std@@V?$allocator@D@2@@std@@QAEAAV12@ID@Z 1000e840 f i view_async.obj
 0001:0000d910       ??_G?$num_put@DV?$ostreambuf_iterator@DU?$char_traits@D@std@@@std@@@std@@MAEPAXI@Z 1000e910 f i view_async.obj
 0001:0000d910       ??_E?$num_put@DV?$ostreambuf_iterator@DU?$char_traits@D@std@@@std@@@std@@MAEPAXI@Z 1000e910 f i * CIL library *:* CIL module *
 0001:0000d940       ?do_truename@?$numpunct@D@std@@MBE?AV?$basic_string@DU?$char_traits@D@std@@V?$allocator@D@2@@2@XZ 1000e940 f i view_async.obj
 0001:0000d990       ?do_falsename@?$numpunct@D@std@@MBE?AV?$basic_string@DU?$char_traits@D@std@@V?$allocator@D@2@@2@XZ 1000e990 f i view_async.obj
 0001:0000d9e0       ?do_grouping@?$numpunct@D@std@@MBE?AV?$basic_string@DU?$char_traits@D@std@@V?$allocator@D@2@@2@XZ 1000e9e0 f i view_async.obj
 0001:0000da30       ?do_thousands_sep@?$numpunct@D@std@@MBEDXZ 1000ea30 f i view_async.obj
 0001:0000da40       ?do_decimal_point@?$numpunct@D@std@@MBEDXZ 1000ea40 f i view_async.obj
 0001:0000da50       ?truename@?$numpunct@D@std@@QBE?AV?$basic_string@DU?$char_traits@D@std@@V?$allocator@D@2@@2@XZ 1000ea50 f i view_async.obj
 0001:0000dac0       ?falsename@?$numpunct@D@std@@QBE?AV?$basic_string@DU?$char_traits@D@std@@V?$allocator@D@2@@2@XZ 1000eac0 f i view_async.obj
 0001:0000db30       ?_Rep@?$num_put@DV?$ostreambuf_iterator@DU?$char_traits@D@std@@@std@@@std@@ABA?AV?$ostreambuf_iterator@DU?$char_traits@D@std@@@2@V32@DI@Z 1000eb30 f i view_async.obj
 0001:0000dba0       ?_Put@?$num_put@DV?$ostreambuf_iterator@DU?$char_traits@D@std@@@std@@@std@@ABA?AV?$ostreambuf_iterator@DU?$char_traits@D@std@@@2@V32@PBDI@Z 1000eba0 f i view_async.obj
 0001:0000dc20       ?_Iput@?$num_put@DV?$ostreambuf_iterator@DU?$char_traits@D@std@@@std@@@std@@ABA?AV?$ostreambuf_iterator@DU?$char_traits@D@std@@@2@V32@AAVios_base@2@DPADI@Z 1000ec20 f i view_async.obj
 0001:0000e010       ?_Ifmt@?$num_put@DV?$ostreambuf_iterator@DU?$char_traits@D@std@@@std@@@std@@ABAPADPADPBDH@Z 1000f010 f i view_async.obj
 0001:0000e0a0       ?_Fput@?$num_put@DV?$ostreambuf_iterator@DU?$char_traits@D@std@@@std@@@std@@ABA?AV?$ostreambuf_iterator@DU?$char_traits@D@std@@@2@V32@AAVios_base@2@DPBDI@Z 1000f0a0 f i view_async.obj
 0001:0000e510       ?_Ffmt@?$num_put@DV?$ostreambuf_iterator@DU?$char_traits@D@std@@@std@@@std@@ABAPADPADDH@Z 1000f510 f i view_async.obj
 0001:0000e5d0       ?_Chassign@?$basic_string@DU?$char_traits@D@std@@V?$allocator@D@2@@std@@QAEXIID@Z 1000f5d0 f i view_async.obj
 0001:0000e620       ?append@?$basic_string@DU?$char_traits@D@std@@V?$allocator@D@2@@std@@QAEAAV12@ID@Z 1000f620 f i view_async.obj
 0001:0000e6d0       ?assign@?$basic_string@DU?$char_traits@D@std@@V?$allocator@D@2@@std@@QAEAAV12@$$QAV12@@Z 1000f6d0 f i view_async.obj
 0001:0000e750       ??_E?$numpunct@D@std@@MAEPAXI@Z 1000f750 f i * CIL library *:* CIL module *
 0001:0000e750       ??_G?$numpunct@D@std@@MAEPAXI@Z 1000f750 f i view_async.obj
 0001:0000e7a0       ?insert@?$basic_string@DU?$char_traits@D@std@@V?$allocator@D@2@@std@@QAEAAV12@IID@Z 1000f7a0 f i view_async.obj
 0001:0000e8a0       ??$use_facet@V?$num_put@DV?$ostreambuf_iterator@DU?$char_traits@D@std@@@std@@@std@@@std@@YAABV?$num_put@DV?$ostreambuf_iterator@DU?$char_traits@D@std@@@std@@@0@ABVlocale@0@@Z 1000f8a0 f i view_async.obj
 0001:0000e9a0       ??$use_facet@V?$numpunct@D@std@@@std@@YAABV?$numpunct@D@0@ABVlocale@0@@Z 1000f9a0 f i view_async.obj
 0001:0000eaa0       ?_Getcat@?$numpunct@D@std@@SAIPAPBVfacet@locale@2@PBV42@@Z 1000faa0 f i view_async.obj
 0001:0000eb20       ?_Getcat@?$num_put@DV?$ostreambuf_iterator@DU?$char_traits@D@std@@@std@@@std@@SAIPAPBVfacet@locale@2@PBV42@@Z 1000fb20 f i view_async.obj
 0001:0000eb90       ?_Init@?$numpunct@D@std@@IAEXABV_Locinfo@2@_N@Z 1000fb90 f i view_async.obj
 0001:0000ed1b       __imp_load_?Value@External@v8@@QBEPAXXZ 1000fd1b f   node:node.exe
 0001:0000ed25       __tailMerge_node_exe       1000fd25 f i node:node.exe
 0001:0000ed36       __imp_load_?New@External@v8@@SA?AV?$Local@VExternal@v8@@@2@PAVIsolate@2@PAX@Z 1000fd36 f   node:node.exe
 0001:0000ed40       __imp_load_?GetCurrentContext@Isolate@v8@@QAE?AV?$Local@VContext@v8@@@2@XZ 1000fd40 f   node:node.exe
 0001:0000ed4a       __imp_load_?GetCurrent@Isolate@v8@@SAPAV12@XZ 1000fd4a f   node:node.exe
 0001:0000ed54       __imp_load_?CreateHandle@HandleScope@v8@@KAPAPAVObject@internal@2@PAVIsolate@42@PAV342@@Z 1000fd54 f   node:node.exe
 0001:0000ed5e       __imp_load_?CreateHandle@HandleScope@v8@@CAPAPAVObject@internal@2@PAVHeapObject@42@PAV342@@Z 1000fd5e f   node:node.exe
 0001:0000ed68       __imp_load_??1HandleScope@v8@@QAE@XZ 1000fd68 f   node:node.exe
 0001:0000ed72       __imp_load_?GetFunction@FunctionTemplate@v8@@QAE?AV?$Local@VFunction@v8@@@2@XZ 1000fd72 f   node:node.exe
 0001:0000ed7c       __imp_load_?GetFunction@FunctionTemplate@v8@@QAE?AV?$MaybeLocal@VFunction@v8@@@2@V?$Local@VContext@v8@@@2@@Z 1000fd7c f   node:node.exe
 0001:0000ed86       __imp_load_?New@FunctionTemplate@v8@@SA?AV?$Local@VFunctionTemplate@v8@@@2@PAVIsolate@2@P6AXABV?$FunctionCallbackInfo@VValue@v8@@@2@@ZV?$Local@VValue@v8@@@2@V?$Local@VSignature@v8@@@2@H@Z 1000fd86 f   node:node.exe
 0001:0000ed90       __imp_load_?ToLocalEmpty@V8@v8@@CAXXZ 1000fd90 f   node:node.exe
 0001:0000ed9a       __imp_load_?Escape@EscapableHandleScope@v8@@AAEPAPAVObject@internal@2@PAPAV342@@Z 1000fd9a f   node:node.exe
 0001:0000eda4       __imp_load_??0EscapableHandleScope@v8@@QAE@PAVIsolate@1@@Z 1000fda4 f   node:node.exe
 0001:0000edae       __imp_load_?NewFromUtf8@String@v8@@SA?AV?$MaybeLocal@VString@v8@@@2@PAVIsolate@2@PBDW4NewStringType@2@H@Z 1000fdae f   node:node.exe
 0001:0000edb8       __imp_load_?SlowGetInternalField@Object@v8@@AAE?AV?$Local@VValue@v8@@@2@H@Z 1000fdb8 f   node:node.exe
 0001:0000edc2       __imp_load_?SetInternalField@Object@v8@@QAEXHV?$Local@VValue@v8@@@2@@Z 1000fdc2 f   node:node.exe
 0001:0000edcc       __imp_load_?Set@Object@v8@@QAE?AV?$Maybe@_N@2@V?$Local@VContext@v8@@@2@V?$Local@VValue@v8@@@2@1@Z 1000fdcc f   node:node.exe
 0001:0000edd6       __imp_load_?SetInternalFieldCount@ObjectTemplate@v8@@QAEXH@Z 1000fdd6 f   node:node.exe
 0001:0000ede0       __imp_load_?NewInstance@ObjectTemplate@v8@@QAE?AV?$MaybeLocal@VObject@v8@@@2@V?$Local@VContext@v8@@@2@@Z 1000fde0 f   node:node.exe
 0001:0000edea       __imp_load_?New@ObjectTemplate@v8@@SA?AV?$Local@VObjectTemplate@v8@@@2@PAVIsolate@2@V?$Local@VFunctionTemplate@v8@@@2@@Z 1000fdea f   node:node.exe
 0001:0000edf4       __imp_load_?AtExit@node@@YAXP6AXPAX@Z0@Z 1000fdf4 f   node:node.exe
 0001:0000edfe       __imp_load__node_module_register 1000fdfe f   node:node.exe
 0001:0000ee08       __imp_load_?New@Array@v8@@SA?AV?$Local@VArray@v8@@@2@PAVIsolate@2@H@Z 1000fe08 f   node:node.exe
 0001:0000ee12       __imp_load_?New@Date@v8@@SA?AV?$MaybeLocal@VValue@v8@@@2@V?$Local@VContext@v8@@@2@N@Z 1000fe12 f   node:node.exe
 0001:0000ee1c       __imp_load_?New@Number@v8@@SA?AV?$Local@VNumber@v8@@@2@PAVIsolate@2@N@Z 1000fe1c f   node:node.exe
 0001:0000ee26       __imp_load_?New@Object@v8@@SA?AV?$Local@VObject@v8@@@2@PAVIsolate@2@@Z 1000fe26 f   node:node.exe
 0001:0000ee30       __imp_load_?Set@Object@v8@@QAE?AV?$Maybe@_N@2@V?$Local@VContext@v8@@@2@IV?$Local@VValue@v8@@@2@@Z 1000fe30 f   node:node.exe
 0001:0000ee3a       __imp_load__uv_queue_work  1000fe3a f   node:node.exe
 0001:0000ee44       __imp_load_?Global@Context@v8@@QAE?AV?$Local@VObject@v8@@@2@XZ 1000fe44 f   node:node.exe
 0001:0000ee4e       __imp_load_??0HandleScope@v8@@QAE@PAVIsolate@1@@Z 1000fe4e f   node:node.exe
 0001:0000ee58       __imp_load_?Error@Exception@v8@@SA?AV?$Local@VValue@v8@@@2@V?$Local@VString@v8@@@2@@Z 1000fe58 f   node:node.exe
 0001:0000ee62       __imp_load_?DisposeGlobal@V8@v8@@CAXPAPAVObject@internal@2@@Z 1000fe62 f   node:node.exe
 0001:0000ee6c       __imp_load_?GlobalizeReference@V8@v8@@CAPAPAVObject@internal@2@PAVIsolate@42@PAPAV342@@Z 1000fe6c f   node:node.exe
 0001:0000ee76       __imp_load_??1Utf8Value@String@v8@@QAE@XZ 1000fe76 f   node:node.exe
 0001:0000ee80       __imp_load_??0Utf8Value@String@v8@@QAE@V?$Local@VValue@v8@@@2@@Z 1000fe80 f   node:node.exe
 0001:0000ee8a       __imp_load_?NewFromUtf8@String@v8@@SA?AV?$Local@VString@v8@@@2@PAVIsolate@2@PBDW4NewStringType@12@H@Z 1000fe8a f   node:node.exe
 0001:0000ee94       __imp_load_?Get@Object@v8@@QAE?AV?$Local@VValue@v8@@@2@V32@@Z 1000fe94 f   node:node.exe
 0001:0000ee9e       __imp_load_?Get@Object@v8@@QAE?AV?$Local@VValue@v8@@@2@I@Z 1000fe9e f   node:node.exe
 0001:0000eea8       __imp_load_?MakeCallback@node@@YA?AV?$Local@VValue@v8@@@v8@@PAVIsolate@3@V?$Local@VObject@v8@@@3@V?$Local@VFunction@v8@@@3@HPAV23@@Z 1000fea8 f   node:node.exe
 0001:0000eeb2       __imp_load__uv_default_loop 1000feb2 f   node:node.exe
 0001:0000eebc       __imp_load_?ToObject@Value@v8@@QBE?AV?$Local@VObject@v8@@@2@XZ 1000febc f   node:node.exe
 0001:0000eec6       __imp_load_?ToString@Value@v8@@QBE?AV?$Local@VString@v8@@@2@XZ 1000fec6 f   node:node.exe
 0001:0000eed0       __imp_load_?Length@Array@v8@@QBEIXZ 1000fed0 f   node:node.exe
 0001:0000eeda       __imp_load_?NumberValue@Value@v8@@QBENXZ 1000feda f   node:node.exe
 0001:0000eee4       __imp_load_?IsDate@Value@v8@@QBE_NXZ 1000fee4 f   node:node.exe
 0001:0000eeee       __imp_load_?IsNumber@Value@v8@@QBE_NXZ 1000feee f   node:node.exe
 0001:0000eef8       __imp_load_?IsArray@Value@v8@@QBE_NXZ 1000fef8 f   node:node.exe
 0001:0000ef02       __imp_load_?GetOwnPropertyNames@Object@v8@@QAE?AV?$Local@VArray@v8@@@2@XZ 1000ff02 f   node:node.exe
 0001:0000ef0c       __imp_load_?ToNumber@Value@v8@@QBE?AV?$Local@VNumber@v8@@@2@XZ 1000ff0c f   node:node.exe
 0001:0000ef16       __imp_load_?Has@Object@v8@@QAE_NV?$Local@VValue@v8@@@2@@Z 1000ff16 f   node:node.exe
 0001:0000ef20       ?IsNull@LNString@@UBEHXZ   1000ff20 f   notescpp:lcppn.dll
 0001:0000ef26       ?DeleteBody@LNSmartPtr@@UAEHXZ 1000ff26 f   notescpp:lcppn.dll
 0001:0000ef2c       ?RemoveAll@LNNoteArray@@UAEKXZ 1000ff2c f   notescpp:lcppn.dll
 0001:0000ef32       ?Remove@LNNoteArray@@UAEKABVLNNote@@@Z 1000ff32 f   notescpp:lcppn.dll
 0001:0000ef38       ?Remove@LNNoteArray@@UAEKK@Z 1000ff38 f   notescpp:lcppn.dll
 0001:0000ef3e       ?Remove@LNNoteArray@@UAEKABV1@@Z 1000ff3e f   notescpp:lcppn.dll
 0001:0000ef44       ?Remove@LNNoteArray@@UAEKABVLNViewFolder@@@Z 1000ff44 f   notescpp:lcppn.dll
 0001:0000ef4a       ?Remove@LNNoteArray@@UAEKABVLNVFNavigator@@@Z 1000ff4a f   notescpp:lcppn.dll
 0001:0000ef50       ?Remove@LNNoteArray@@UAEKPAX@Z 1000ff50 f   notescpp:lcppn.dll
 0001:0000ef56       ?Contains@LNNoteArray@@UBEHABVLNNote@@@Z 1000ff56 f   notescpp:lcppn.dll
 0001:0000ef5c       ?Contains@LNNoteArray@@UBEHK@Z 1000ff5c f   notescpp:lcppn.dll
 0001:0000ef62       ?Copy@LNNoteArray@@UBEKPAV1@@Z 1000ff62 f   notescpp:lcppn.dll
 0001:0000ef68       ?Add@LNNoteArray@@UAEKABVLNNote@@@Z 1000ff68 f   notescpp:lcppn.dll
 0001:0000ef6e       ?Add@LNNoteArray@@UAEKK@Z  1000ff6e f   notescpp:lcppn.dll
 0001:0000ef74       ?Add@LNNoteArray@@UAEKABV1@@Z 1000ff74 f   notescpp:lcppn.dll
 0001:0000ef7a       ?Add@LNNoteArray@@UAEKABVLNViewFolder@@@Z 1000ff7a f   notescpp:lcppn.dll
 0001:0000ef80       ?Add@LNNoteArray@@UAEKABVLNVFNavigator@@@Z 1000ff80 f   notescpp:lcppn.dll
 0001:0000ef86       ?Add@LNNoteArray@@UAEKPAX@Z 1000ff86 f   notescpp:lcppn.dll
 0001:0000ef8c       ?IsOnHeap@LNNotesClass@@UBEHXZ 1000ff8c f   notescpp:lcppn.dll
 0001:0000ef92       ?Close@LNNote@@UAEKXZ      1000ff92 f   notescpp:lcppn.dll
 0001:0000ef98       ?CreateNoteBody@LNNote@@MAEKKKH@Z 1000ff98 f   notescpp:lcppn.dll
 0001:0000ef9e       ?ValidateNoteType@LNViewFolder@@EBEXABVLNNote@@@Z 1000ff9e f   notescpp:lcppn.dll
 0001:0000efa4       ?ValidateNoteType@LNViewFolder@@EBEXPBVLNNoteBody@@@Z 1000ffa4 f   notescpp:lcppn.dll
 0001:0000efaa       ?ValidateNoteType@LNViewFolder@@EBEXK@Z 1000ffaa f   notescpp:lcppn.dll
 0001:0000efb0       ?Open@LNViewFolder@@UAEKK@Z 1000ffb0 f   notescpp:lcppn.dll
 0001:0000efb6       ??0_Init_locks@std@@QAE@XZ 1000ffb6 f   libcpmt:xlock.obj
 0001:0000efe3       ??0_Lockit@std@@QAE@H@Z    1000ffe3 f   libcpmt:xlock.obj
 0001:0000f014       ??1_Init_locks@std@@QAE@XZ 10010014 f   libcpmt:xlock.obj
 0001:0000f03b       ??1_Lockit@std@@QAE@XZ     1001003b f   libcpmt:xlock.obj
 0001:0000f05a       ??$_Fgetc@D@std@@YA_NAADPAU_iobuf@@@Z 1001005a f i libcpmt:cout.obj
 0001:0000f07a       ??$_Fputc@D@std@@YA_NDPAU_iobuf@@@Z 1001007a f i libcpmt:cout.obj
 0001:0000f096       ??$_Ungetc@D@std@@YA_NABDPAU_iobuf@@@Z 10010096 f i libcpmt:cout.obj
 0001:0000f0b4       ??$use_facet@V?$codecvt@DDU_Mbstatet@@@std@@@std@@YAABV?$codecvt@DDU_Mbstatet@@@0@ABVlocale@0@@Z 100100b4 f i libcpmt:cout.obj
 0001:0000f151       ??0?$basic_ostream@DU?$char_traits@D@std@@@std@@QAE@PAV?$basic_streambuf@DU?$char_traits@D@std@@@1@_N@Z 10010151 f i libcpmt:cout.obj
 0001:0000f1b8       ??0?$basic_streambuf@DU?$char_traits@D@std@@@std@@IAE@XZ 100101b8 f i libcpmt:cout.obj
 0001:0000f1ff       ??0?$fpos@U_Mbstatet@@@std@@QAE@U_Mbstatet@@_J@Z 100101ff f i libcpmt:cout.obj
 0001:0000f227       ??0_Init_cout@std@@QAE@XZ  10010227 f i libcpmt:cout.obj
 0001:0000f280       ??0bad_cast@std@@QAE@ABV01@@Z 10010280 f i libcpmt:cout.obj
 0001:0000f2a1       ??0bad_cast@std@@QAE@XZ    100102a1 f i libcpmt:cout.obj
 0001:0000f2c3       ??0exception@std@@QAE@ABV01@@Z 100102c3 f i libcpmt:cout.obj
 0001:0000f2ef       ??0exception@std@@QAE@QBD@Z 100102ef f i libcpmt:cout.obj
 0001:0000f326       ??1?$basic_filebuf@DU?$char_traits@D@std@@@std@@UAE@XZ 10010326 f i libcpmt:cout.obj
 0001:0000f380       ??1?$basic_ios@DU?$char_traits@D@std@@@std@@UAE@XZ 10010380 f i libcpmt:cout.obj
 0001:0000f3c2       ??1?$basic_streambuf@DU?$char_traits@D@std@@@std@@UAE@XZ 100103c2 f i libcpmt:cout.obj
 0001:0000f3e3       ??_D?$basic_ostream@DU?$char_traits@D@std@@@std@@QAEXXZ 100103e3 f i libcpmt:cout.obj
 0001:0000f446       ??_E?$basic_ostream@DU?$char_traits@D@std@@@std@@$4PPPPPPPM@A@AEPAXI@Z 10010446 f i libcpmt:cout.obj
 0001:0000f44e       ??_E?$basic_filebuf@DU?$char_traits@D@std@@@std@@UAEPAXI@Z 1001044e f i libcpmt:cout.obj
 0001:0000f44e       ??_G?$basic_filebuf@DU?$char_traits@D@std@@@std@@UAEPAXI@Z 1001044e f i libcpmt:cout.obj
 0001:0000f470       ??_E?$basic_ios@DU?$char_traits@D@std@@@std@@UAEPAXI@Z 10010470 f i libcpmt:cout.obj
 0001:0000f470       ??_G?$basic_ios@DU?$char_traits@D@std@@@std@@UAEPAXI@Z 10010470 f i libcpmt:cout.obj
 0001:0000f4cd       ??_G?$basic_ostream@DU?$char_traits@D@std@@@std@@UAEPAXI@Z 100104cd f i libcpmt:cout.obj
 0001:0000f4cd       ??_E?$basic_ostream@DU?$char_traits@D@std@@@std@@UAEPAXI@Z 100104cd f i libcpmt:cout.obj
 0001:0000f4f2       ??_G?$basic_streambuf@DU?$char_traits@D@std@@@std@@UAEPAXI@Z 100104f2 f i libcpmt:cout.obj
 0001:0000f4f2       ??_E?$basic_streambuf@DU?$char_traits@D@std@@@std@@UAEPAXI@Z 100104f2 f i libcpmt:cout.obj
 0001:0000f514       ??_G?$codecvt@DDU_Mbstatet@@@std@@MAEPAXI@Z 10010514 f i libcpmt:cout.obj
 0001:0000f514       ??_E?$codecvt@DDU_Mbstatet@@@std@@MAEPAXI@Z 10010514 f i libcpmt:cout.obj
 0001:0000f537       ??_Gexception@std@@UAEPAXI@Z 10010537 f i libcpmt:cout.obj
 0001:0000f537       ??_Glogic_error@std@@UAEPAXI@Z 10010537 f i libcpmt:xthrow.obj
 0001:0000f537       ??_Gout_of_range@std@@UAEPAXI@Z 10010537 f i libcpmt:xthrow.obj
 0001:0000f537       ??_Gbad_array_new_length@std@@UAEPAXI@Z 10010537 f i LIBCMT:throw_bad_alloc.obj
 0001:0000f537       ??_Gbad_exception@std@@UAEPAXI@Z 10010537 f i libvcruntime:frame.obj
 0001:0000f537       ??_Eexception@std@@UAEPAXI@Z 10010537 f i libcpmt:cout.obj
 0001:0000f537       ??_Ebad_exception@std@@UAEPAXI@Z 10010537 f i libvcruntime:frame.obj
 0001:0000f537       ??_Eout_of_range@std@@UAEPAXI@Z 10010537 f i libcpmt:xthrow.obj
 0001:0000f537       ??_Ebad_array_new_length@std@@UAEPAXI@Z 10010537 f i LIBCMT:throw_bad_alloc.obj
 0001:0000f537       ??_Elogic_error@std@@UAEPAXI@Z 10010537 f i libcpmt:xthrow.obj
 0001:0000f537       ??_Gbad_cast@std@@UAEPAXI@Z 10010537 f i libcpmt:cout.obj
 0001:0000f537       ??_Gbad_alloc@std@@UAEPAXI@Z 10010537 f i libcpmt:xthrow.obj
 0001:0000f537       ??_Glength_error@std@@UAEPAXI@Z 10010537 f i libcpmt:xthrow.obj
 0001:0000f537       ??_Ebad_alloc@std@@UAEPAXI@Z 10010537 f i libcpmt:xthrow.obj
 0001:0000f537       ??_Elength_error@std@@UAEPAXI@Z 10010537 f i libcpmt:xthrow.obj
 0001:0000f537       ??_Ebad_cast@std@@UAEPAXI@Z 10010537 f i libcpmt:cout.obj
 0001:0000f564       ??_Eios_base@std@@UAEPAXI@Z 10010564 f i libcpmt:cout.obj
 0001:0000f564       ??_Gios_base@std@@UAEPAXI@Z 10010564 f i libcpmt:cout.obj
 0001:0000f5be       ?_Endwrite@?$basic_filebuf@DU?$char_traits@D@std@@@std@@IAE_NXZ 100105be f i libcpmt:cout.obj
 0001:0000f6dc       ?_Getcat@?$codecvt@DDU_Mbstatet@@@std@@SAIPAPBVfacet@locale@2@PBV42@@Z 100106dc f i libcpmt:cout.obj
 0001:0000f744       ?_Init@?$basic_filebuf@DU?$char_traits@D@std@@@std@@IAEXPAU_iobuf@@W4_Initfl@12@@Z 10010744 f i libcpmt:cout.obj
 0001:0000f7c2       ?_Init@?$basic_streambuf@DU?$char_traits@D@std@@@std@@IAEXXZ 100107c2 f i libcpmt:cout.obj
 0001:0000f806       ?_Init@ios_base@std@@IAEXXZ 10010806 f i libcpmt:cout.obj
 0001:0000f86c       ?_Initcvt@?$basic_filebuf@DU?$char_traits@D@std@@@std@@IAEXPBV?$codecvt@DDU_Mbstatet@@@2@@Z 1001086c f i libcpmt:cout.obj
 0001:0000f8a2       ?_Lock@?$basic_filebuf@DU?$char_traits@D@std@@@std@@UAEXXZ 100108a2 f i libcpmt:cout.obj
 0001:0000f8b2       ?_Reset_back@?$basic_filebuf@DU?$char_traits@D@std@@@std@@AAEXXZ 100108b2 f i libcpmt:cout.obj
 0001:0000f8d5       ?_Set_back@?$basic_filebuf@DU?$char_traits@D@std@@@std@@AAEXXZ 100108d5 f i libcpmt:cout.obj
 0001:0000f90b       ?_Unlock@?$basic_filebuf@DU?$char_traits@D@std@@@std@@UAEXXZ 1001090b f i libcpmt:cout.obj
 0001:0000f91b       ?close@?$basic_filebuf@DU?$char_traits@D@std@@@std@@QAEPAV12@XZ 1001091b f i libcpmt:cout.obj
 0001:0000f97a       ?do_max_length@codecvt_base@std@@MBEHXZ 1001097a f i libcpmt:cout.obj
 0001:0000f97a       ?do_encoding@codecvt_base@std@@MBEHXZ 1001097a f i libcpmt:cout.obj
 0001:0000f97e       ?do_out@?$codecvt@DDU_Mbstatet@@@std@@MBEHAAU_Mbstatet@@PBD1AAPBDPAD3AAPAD@Z 1001097e f i libcpmt:cout.obj
 0001:0000f97e       ?do_in@?$codecvt@DDU_Mbstatet@@@std@@MBEHAAU_Mbstatet@@PBD1AAPBDPAD3AAPAD@Z 1001097e f i libcpmt:cout.obj
 0001:0000f998       ?do_length@?$codecvt@DDU_Mbstatet@@@std@@MBEHAAU_Mbstatet@@PBD1I@Z 10010998 f i libcpmt:cout.obj
 0001:0000f9b0       ?do_unshift@?$codecvt@DDU_Mbstatet@@@std@@MBEHAAU_Mbstatet@@PAD1AAPAD@Z 100109b0 f i libcpmt:cout.obj
 0001:0000f9c1       ?imbue@?$basic_filebuf@DU?$char_traits@D@std@@@std@@MAEXABVlocale@2@@Z 100109c1 f i libcpmt:cout.obj
 0001:0000f9dd       ?imbue@?$basic_streambuf@DU?$char_traits@D@std@@@std@@MAEXABVlocale@2@@Z 100109dd f i libcpmt:cout.obj
 0001:0000f9e0       ?init@?$basic_ios@DU?$char_traits@D@std@@@std@@IAEXPAV?$basic_streambuf@DU?$char_traits@D@std@@@2@_N@Z 100109e0 f i libcpmt:cout.obj
 0001:0000fa29       ?overflow@?$basic_filebuf@DU?$char_traits@D@std@@@std@@MAEHH@Z 10010a29 f i libcpmt:cout.obj
 0001:0000fbc7       ?pbackfail@?$basic_filebuf@DU?$char_traits@D@std@@@std@@MAEHH@Z 10010bc7 f i libcpmt:cout.obj
 0001:0000fc4e       ?overflow@?$basic_streambuf@DU?$char_traits@D@std@@@std@@MAEHH@Z 10010c4e f i libcpmt:cout.obj
 0001:0000fc4e       ?pbackfail@?$basic_streambuf@DU?$char_traits@D@std@@@std@@MAEHH@Z 10010c4e f i libcpmt:cout.obj
 0001:0000fc54       ?seekoff@?$basic_filebuf@DU?$char_traits@D@std@@@std@@MAE?AV?$fpos@U_Mbstatet@@@2@_JHH@Z 10010c54 f i libcpmt:cout.obj
 0001:0000fd15       ?seekoff@?$basic_streambuf@DU?$char_traits@D@std@@@std@@MAE?AV?$fpos@U_Mbstatet@@@2@_JHH@Z 10010d15 f i libcpmt:cout.obj
 0001:0000fd3f       ?seekpos@?$basic_filebuf@DU?$char_traits@D@std@@@std@@MAE?AV?$fpos@U_Mbstatet@@@2@V32@H@Z 10010d3f f i libcpmt:cout.obj
 0001:0000fdff       ?seekpos@?$basic_streambuf@DU?$char_traits@D@std@@@std@@MAE?AV?$fpos@U_Mbstatet@@@2@V32@H@Z 10010dff f i libcpmt:cout.obj
 0001:0000fe29       ?setbuf@?$basic_filebuf@DU?$char_traits@D@std@@@std@@MAEPAV?$basic_streambuf@DU?$char_traits@D@std@@@2@PAD_J@Z 10010e29 f i libcpmt:cout.obj
 0001:0000fe77       ?setbuf@?$basic_streambuf@DU?$char_traits@D@std@@@std@@MAEPAV12@PAD_J@Z 10010e77 f i libcpmt:cout.obj
 0001:0000fe7c       ?showmanyc@?$basic_streambuf@DU?$char_traits@D@std@@@std@@MAE_JXZ 10010e7c f i libcpmt:cout.obj
 0001:0000fe81       ?sync@?$basic_filebuf@DU?$char_traits@D@std@@@std@@MAEHXZ 10010e81 f i libcpmt:cout.obj
 0001:0000feb9       ?uflow@?$basic_filebuf@DU?$char_traits@D@std@@@std@@MAEHXZ 10010eb9 f i libcpmt:cout.obj
 0001:00010058       ?uflow@?$basic_streambuf@DU?$char_traits@D@std@@@std@@MAEHXZ 10011058 f i libcpmt:cout.obj
 0001:0001008a       ?underflow@?$basic_filebuf@DU?$char_traits@D@std@@@std@@MAEHXZ 1001108a f i libcpmt:cout.obj
 0001:000100d8       ?underflow@?$basic_streambuf@DU?$char_traits@D@std@@@std@@MAEHXZ 100110d8 f i libcpmt:cout.obj
 0001:000100dc       ?what@exception@std@@UBEPBDXZ 100110dc f i libcpmt:cout.obj
 0001:000100e9       ?xsgetn@?$basic_streambuf@DU?$char_traits@D@std@@@std@@MAE_JPAD_J@Z 100110e9 f i libcpmt:cout.obj
 0001:000101e2       ?xsputn@?$basic_streambuf@DU?$char_traits@D@std@@@std@@MAE_JPBD_J@Z 100111e2 f i libcpmt:cout.obj
 0001:0001035c       ??0_Locimp@locale@std@@AAE@_N@Z 1001135c f i libcpmt:locale0.obj
 0001:0001039f       ??1_Fac_node@std@@QAE@XZ   1001139f f i libcpmt:locale0.obj
 0001:000103fe       ??1_Fac_tidy_reg_t@std@@QAE@XZ 100113fe f i libcpmt:locale0.obj
 0001:00010425       ??1_Locimp@locale@std@@MAE@XZ 10011425 f i libcpmt:locale0.obj
 0001:00010480       ??4?$_Yarn@D@std@@QAEAAV01@PBD@Z 10011480 f i libcpmt:locale0.obj
 0001:000104d4       ??_G_Locimp@locale@std@@MAEPAXI@Z 100114d4 f i libcpmt:locale0.obj
 0001:000104d4       ??_E_Locimp@locale@std@@MAEPAXI@Z 100114d4 f i libcpmt:locale0.obj
 0001:000104f6       ?_Facet_Register@std@@YAXPAV_Facet_base@1@@Z 100114f6 f   libcpmt:locale0.obj
 0001:00010524       ?_Getgloballocale@locale@std@@CAPAV_Locimp@12@XZ 10011524 f   libcpmt:locale0.obj
 0001:0001052a       ?_Init@locale@std@@CAPAV_Locimp@12@_N@Z 1001152a f   libcpmt:locale0.obj
 0001:000105b8       ?_Locimp_dtor@_Locimp@locale@std@@CAXPAV123@@Z 100115b8 f   libcpmt:locale0.obj
 0001:0001062d       ?_Locinfo_ctor@_Locinfo@std@@SAXPAV12@PBD@Z 1001162d f   libcpmt:locale0.obj
 0001:00010678       ?_Locinfo_dtor@_Locinfo@std@@SAXPAV12@@Z 10011678 f   libcpmt:locale0.obj
 0001:0001069a       ?_New_Locimp@_Locimp@locale@std@@CAPAV123@_N@Z 1001169a f   libcpmt:locale0.obj
 0001:000106bf       ?_Setgloballocale@locale@std@@CAXPAX@Z 100116bf f   libcpmt:locale0.obj
 0001:000106e7       __Deletegloballocale       100116e7 f   libcpmt:locale0.obj
 0001:0001074c       ??0bad_alloc@std@@QAE@ABV01@@Z 1001174c f i libcpmt:xthrow.obj
 0001:0001076d       ??0bad_alloc@std@@QAE@XZ   1001176d f i libcpmt:xthrow.obj
 0001:00010785       ??0length_error@std@@QAE@ABV01@@Z 10011785 f i libcpmt:xthrow.obj
 0001:000107a6       ??0length_error@std@@QAE@PBD@Z 100117a6 f i libcpmt:xthrow.obj
 0001:000107c7       ??0logic_error@std@@QAE@ABV01@@Z 100117c7 f i libcpmt:xthrow.obj
 0001:000107e8       ??0out_of_range@std@@QAE@ABV01@@Z 100117e8 f i libcpmt:xthrow.obj
 0001:00010809       ??0out_of_range@std@@QAE@PBD@Z 10011809 f i libcpmt:xthrow.obj
 0001:0001082a       ?_Xlength_error@std@@YAXPBD@Z 1001182a f   libcpmt:xthrow.obj
 0001:0001084a       ?_Xout_of_range@std@@YAXPBD@Z 1001184a f   libcpmt:xthrow.obj
 0001:0001086a       ?_Syserror_map@std@@YAPBDH@Z 1001186a f   libcpmt:syserror.obj
 0001:0001088f       __Getctype                 1001188f f   libcpmt:_tolower.obj
 0001:000108fa       __Tolower                  100118fa f   libcpmt:_tolower.obj
 0001:000109f4       __Toupper                  100119f4 f   libcpmt:_toupper.obj
 0001:00010aee       __Getcvt                   10011aee f   libcpmt:xwctomb.obj
 0001:00010b5b       __Mtxdst                   10011b5b f   libcpmt:xmtx.obj
 0001:00010b69       __Mtxinit                  10011b69 f   libcpmt:xmtx.obj
 0001:00010b80       __Mtxlock                  10011b80 f   libcpmt:xmtx.obj
 0001:00010b8e       __Mtxunlock                10011b8e f   libcpmt:xmtx.obj
 0001:00010b9c       ?_Addstd@ios_base@std@@SAXPAV12@@Z 10011b9c f   libcpmt:ios.obj
 0001:00010bed       ?_Callfns@ios_base@std@@AAEXW4event@12@@Z 10011bed f i libcpmt:ios.obj
 0001:00010c1f       ?_Ios_base_dtor@ios_base@std@@CAXPAV12@@Z 10011c1f f   libcpmt:ios.obj
 0001:00010c5f       ?_Tidy@ios_base@std@@AAEXXZ 10011c5f f i libcpmt:ios.obj
 0001:00010ca7       ??1_Init_atexit@@QAE@XZ    10011ca7 f i libcpmt:iosptrs.obj
 0001:00010d0b       ?_Atexit@@YAXP6AXXZ@Z      10011d0b f   libcpmt:iosptrs.obj
 0001:00010d39       ___crtLCMapStringA         10011d39 f   libcpmt:StlLCMapStringA.obj
 0001:00010f47       __freea_crt                10011f47 f i libcpmt:StlLCMapStringA.obj
 0001:00011310       ___crtInitializeCriticalSectionEx 10012310 f   libcpmt:winapisupp.obj
 0001:00011348       _GetTableIndexFromLocaleName 10012348 f   libcpmt:winapinls.obj
 0001:00011396       ___crtDownlevelLocaleNameToLCID 10012396 f   libcpmt:winapinls.obj
 0001:000113c0       ___crtLCMapStringEx        100123c0 f   libcpmt:winapinls.obj
 0001:00011416       ___wcsnicmp_ascii          10012416 f   libcpmt:winapinls.obj
 0001:00011489       @__security_check_cookie@4 10012489 f   LIBCMT:_secchk_.obj
 0001:000114de       ___scrt_acquire_startup_lock 100124de f   LIBCMT:utility.obj
 0001:00011513       ___scrt_dllmain_after_initialize_c 10012513 f   LIBCMT:utility.obj
 0001:0001152b       ___scrt_dllmain_before_initialize_c 1001252b f   LIBCMT:utility.obj
 0001:00011539       ___scrt_dllmain_crt_thread_attach 10012539 f   LIBCMT:utility.obj
 0001:00011558       ___scrt_dllmain_crt_thread_detach 10012558 f   LIBCMT:utility.obj
 0001:00011565       ___scrt_dllmain_exception_filter 10012565 f   LIBCMT:utility.obj
 0001:00011598       ___scrt_dllmain_uninitialize_c 10012598 f   LIBCMT:utility.obj
 0001:000115bb       ___scrt_dllmain_uninitialize_critical 100125bb f   LIBCMT:utility.obj
 0001:000115c8       ___scrt_initialize_crt     100125c8 f   LIBCMT:utility.obj
 0001:00011601       ___scrt_initialize_onexit_tables 10012601 f   LIBCMT:utility.obj
 0001:00011698       ___scrt_is_nonwritable_in_current_image 10012698 f   LIBCMT:utility.obj
 0001:00011725       ___scrt_release_startup_lock 10012725 f   LIBCMT:utility.obj
 0001:00011742       ___scrt_uninitialize_crt   10012742 f   LIBCMT:utility.obj
 0001:0001176a       __onexit                   1001276a f   LIBCMT:utility.obj
 0001:000117a5       _atexit                    100127a5 f   LIBCMT:utility.obj
 0001:000117ba       ??_V@YAXPAX@Z              100127ba f   LIBCMT:delete_array.obj
 0001:0001187f       ??$__crt_fast_encode_pointer@P6GHPAU_RTL_CONDITION_VARIABLE@@PAU_RTL_CRITICAL_SECTION@@K@Z@@YAP6GHPAU_RTL_CONDITION_VARIABLE@@PAU_RTL_CRITICAL_SECTION@@K@ZQ6GH01K@Z@Z 1001287f f i LIBCMT:thread_safe_statics.obj
 0001:0001187f       ??$__crt_fast_encode_pointer@P6GXPAU_RTL_CONDITION_VARIABLE@@@Z@@YAP6GXPAU_RTL_CONDITION_VARIABLE@@@ZQ6GX0@Z@Z 1001287f f i LIBCMT:thread_safe_statics.obj
 0001:0001187f       ??$__crt_fast_encode_pointer@PAP6AXXZ@@YAPAP6AXXZQAP6AXXZ@Z 1001287f f i LIBCMT:utility.obj
 0001:0001187f       ??$__crt_fast_encode_pointer@PAX@@YAPAXQAX@Z 1001287f f i libvcruntime:winapi_downlevel.obj
 0001:000118b8       __Init_thread_footer       100128b8 f   LIBCMT:thread_safe_statics.obj
 0001:000118f7       __Init_thread_header       100128f7 f   LIBCMT:thread_safe_statics.obj
 0001:0001193d       __Init_thread_lock         1001293d f   LIBCMT:thread_safe_statics.obj
 0001:00011949       __Init_thread_notify       10012949 f   LIBCMT:thread_safe_statics.obj
 0001:0001198a       __Init_thread_unlock       1001298a f   LIBCMT:thread_safe_statics.obj
 0001:00011996       __Init_thread_wait         10012996 f   LIBCMT:thread_safe_statics.obj
 0001:000119fb       ??2@YAPAXI@Z               100129fb f   LIBCMT:new_scalar.obj
 0001:00011a2e       ??3@YAXPAX@Z               10012a2e f   LIBCMT:delete_scalar.obj
 0001:00011a33       ??3@YAXPAXI@Z              10012a33 f   LIBCMT:delete_scalar_size.obj
 0001:00011a41       ??_Gtype_info@@UAEPAXI@Z   10012a41 f i LIBCMT:std_type_info_static.obj
 0001:00011a41       ??_Etype_info@@UAEPAXI@Z   10012a41 f i LIBCMT:std_type_info_static.obj
 0001:00011a64       ??_U@YAPAXI@Z              10012a64 f   LIBCMT:new_array.obj
 0001:00011d82       __DllMainCRTStartup@12     10012d82 f   LIBCMT:dll_dllmain.obj
 0001:00011da5       @_guard_check_icall@4      10012da5 f i LIBCMT:checkcfg.obj
 0001:00011dab       __EH_epilog3               10012dab f   LIBCMT:ehprolg3.obj
 0001:00011dc0       __EH_epilog3_GS            10012dc0 f   LIBCMT:ehprolg3.obj
 0001:00011dd1       __EH_prolog3               10012dd1 f   LIBCMT:ehprolg3.obj
 0001:00011e05       __EH_prolog3_GS            10012e05 f   LIBCMT:ehprolg3.obj
 0001:00011e3c       __EH_prolog3_catch         10012e3c f   LIBCMT:ehprolg3.obj
 0001:00011e80       __alloca_probe_16          10012e80 f   LIBCMT:alloca16.obj
 0001:00011e96       __alloca_probe_8           10012e96     LIBCMT:alloca16.obj
 0001:00011eb0       __allmul                   10012eb0 f   LIBCMT:llmul.obj
 0001:00011ef0       __aulldiv                  10012ef0 f   LIBCMT:ulldiv.obj
 0001:00011f58       ___raise_securityfailure   10012f58 f   LIBCMT:gs_report.obj
 0001:00011f80       ___report_gsfailure        10012f80 f   LIBCMT:gs_report.obj
 0001:0001207b       ___report_rangecheckfailure 1001307b f   LIBCMT:gs_report.obj
 0001:00012087       ___report_securityfailure  10013087 f   LIBCMT:gs_report.obj
 0001:00012157       ___isa_available_init      10013157 f   LIBCMT:_cpu_disp_.obj
 0001:000122f8       ___scrt_is_ucrt_dll_in_use 100132f8 f   LIBCMT:ucrt_detection.obj
 0001:00012304       ___scrt_fastfail           10013304 f   LIBCMT:utility_desktop.obj
 0001:0001241f       __crt_debugger_hook        1001341f f   LIBCMT:utility_desktop.obj
 0001:00012430       __SEH_prolog4              10013430 f   LIBCMT:_sehprolg4_.obj
 0001:00012476       __SEH_epilog4              10013476 f   LIBCMT:_sehprolg4_.obj
 0001:0001248b       ??0bad_array_new_length@std@@QAE@ABV01@@Z 1001348b f i LIBCMT:throw_bad_alloc.obj
 0001:000124ac       ??0bad_array_new_length@std@@QAE@XZ 100134ac f i LIBCMT:throw_bad_alloc.obj
 0001:000124c4       ?_Xbad_alloc@std@@YAXXZ    100134c4 f   libcpmt:xthrow.obj
 0001:000124c4       ?__scrt_throw_std_bad_alloc@@YAXXZ 100134c4 f   LIBCMT:throw_bad_alloc.obj
 0001:000124e1       ?__scrt_throw_std_bad_array_new_length@@YAXXZ 100134e1 f   LIBCMT:throw_bad_alloc.obj
 0001:000124fe       ___security_init_cookie    100134fe f   LIBCMT:gs_support.obj
 0001:0001259a       _DllMain@12                1001359a f   LIBCMT:dll_dllmain_stub.obj
 0001:000125a0       ?__scrt_initialize_type_info@@YAXXZ 100135a0 f   LIBCMT:tncleanup.obj
 0001:000125ac       ?__scrt_uninitialize_type_info@@YAXXZ 100135ac f   LIBCMT:tncleanup.obj
 0001:000125b8       ___local_stdio_scanf_options 100135b8 f i LIBCMT:default_local_stdio_options.obj
 0001:000125be       ___scrt_initialize_default_local_stdio_options 100135be f   LIBCMT:default_local_stdio_options.obj
 0001:000125db       ___scrt_get_dyn_tls_init_callback 100135db f   LIBCMT:dyn_tls_init.obj
 0001:000125e1       __RTC_Initialize           100135e1 f   LIBCMT:_initsect_.obj
 0001:0001260c       __RTC_Terminate            1001360c f   LIBCMT:_initsect_.obj
 0001:00012640       __alloca_probe             10013640 f   LIBCMT:chkstk.obj
 0001:00012640       __chkstk                   10013640 f   LIBCMT:chkstk.obj
 0001:00012670       _memmove                   10013670 f   libvcruntime:memmove.obj
 0001:00012be4       __get_purecall_handler     10013be4 f   libvcruntime:purevirt.obj
 0001:00012c03       __purecall                 10013c03 f   libvcruntime:purevirt.obj
 0001:00012c1e       ___DestructExceptionObject 10013c1e f   libvcruntime:frame.obj
 0001:00012cb2       ??0bad_exception@std@@QAE@ABV01@@Z 10013cb2 f i libvcruntime:frame.obj
 0001:00012cd3       ??0bad_exception@std@@QAE@XZ 10013cd3 f i libvcruntime:frame.obj
 0001:00012ceb       ??1length_error@std@@UAE@XZ 10013ceb f i libcpmt:xthrow.obj
 0001:00012ceb       ??1bad_exception@std@@UAE@XZ 10013ceb f i libvcruntime:frame.obj
 0001:00012ceb       ??1bad_cast@std@@UAE@XZ    10013ceb f i libcpmt:cout.obj
 0001:00012ceb       ??1bad_array_new_length@std@@UAE@XZ 10013ceb f i LIBCMT:throw_bad_alloc.obj
 0001:00012ceb       ??1bad_alloc@std@@UAE@XZ   10013ceb f i libcpmt:xthrow.obj
 0001:00012ceb       ??1out_of_range@std@@UAE@XZ 10013ceb f i libcpmt:xthrow.obj
 0001:0001350b       ?_CallMemberFunction0@@YGXQAX0@Z 1001450b f i libvcruntime:frame.obj
 0001:0001350b       ?_CallMemberFunction1@@YGXQAX00@Z 1001450b f i libvcruntime:frame.obj
 0001:0001350b       ?_CallMemberFunction2@@YGXQAX00H@Z 1001450b f i libvcruntime:frame.obj
 0001:00013512       ___AdjustPointer           10014512 f   libvcruntime:frame.obj
 0001:00013537       ___BuildCatchObject        10014537 f   libvcruntime:frame.obj
 0001:000135c9       ___BuildCatchObjectHelper  100145c9 f   libvcruntime:frame.obj
 0001:000136fb       ___FrameUnwindFilter       100146fb f   libvcruntime:frame.obj
 0001:00013740       ___FrameUnwindToState      10014740 f   libvcruntime:frame.obj
 0001:00013808       ___InternalCxxFrameHandler 10014808 f   libvcruntime:frame.obj
 0001:00013904       ___TypeMatch               10014904 f   libvcruntime:frame.obj
 0001:00013992       ___std_terminate           10014992 f   libvcruntime:frame.obj
 0001:00013997       ___std_exception_copy      10014997 f   libvcruntime:std_exception.obj
 0001:000139fa       ___std_exception_destroy   100149fa f   libvcruntime:std_exception.obj
 0001:00013a19       __CxxThrowException@8      10014a19 f   libvcruntime:throw.obj
 0001:00013a87       ?_CallCatchBlock2@@YAPAXPAUEHRegistrationNode@@PBU_s_FuncInfo@@PAXHK@Z 10014a87 f   libvcruntime:trnsctrl.obj
 0001:00013ae7       ?_CallSETranslator@@YAHPAUEHExceptionRecord@@PAUEHRegistrationNode@@PAX2PBU_s_FuncInfo@@H1@Z 10014ae7 f   libvcruntime:trnsctrl.obj
 0001:00013bc4       ?_GetRangeOfTrysToCheck@@YAPBU_s_TryBlockMapEntry@@PBU_s_FuncInfo@@HHPAI1@Z 10014bc4 f   libvcruntime:trnsctrl.obj
 0001:00013c3c       ?_JumpToContinuation@@YGXPAXPAUEHRegistrationNode@@@Z 10014c3c f   libvcruntime:trnsctrl.obj
 0001:00013c6e       ?_UnwindNestedFrames@@YGXPAUEHRegistrationNode@@PAUEHExceptionRecord@@@Z 10014c6e f   libvcruntime:trnsctrl.obj
 0001:00013cc3       __CatchGuardHandler        10014cc3 f   libvcruntime:trnsctrl.obj
 0001:00013cf4       __CreateFrameInfo          10014cf4 f   libvcruntime:trnsctrl.obj
 0001:00013d18       __FindAndUnlinkFrame       10014d18 f   libvcruntime:trnsctrl.obj
 0001:00013d60       __IsExceptionObjectToBeDestroyed 10014d60 f   libvcruntime:trnsctrl.obj
 0001:00013d86       __TranslatorGuardHandler   10014d86 f   libvcruntime:trnsctrl.obj
 0001:00013e25       ___CxxFrameHandler3        10014e25 f   libvcruntime:trnsctrl.obj
 0001:00013e60       _memcpy                    10014e60 f   libvcruntime:memcpy.obj
 0001:000143e0       _memset                    100153e0 f   libvcruntime:memset.obj
 0001:00014540       _memchr                    10015540 f   libvcruntime:memchr.obj
 0001:000145ed       _memcmp                    100155ed f   libvcruntime:_memcmp_.obj
 0001:00015d6d       ___vcrt_initialize         10016d6d f   libvcruntime:initialization.obj
 0001:00015d9b       ___vcrt_thread_attach      10016d9b f   libvcruntime:initialization.obj
 0001:00015da6       ___vcrt_thread_detach      10016da6 f   libvcruntime:initialization.obj
 0001:00015db1       ___vcrt_uninitialize       10016db1 f   libvcruntime:initialization.obj
 0001:00015dd5       ___vcrt_uninitialize_critical 10016dd5 f   libvcruntime:initialization.obj
 0001:00015e20       __except_handler4          10016e20 f   libvcruntime:_chandler4_.obj
 0001:0001609c       ___vcrt_EventRegister      1001709c f   libvcruntime:winapi_downlevel.obj
 0001:000160dc       ___vcrt_EventSetInformation 100170dc f   libvcruntime:winapi_downlevel.obj
 0001:0001611f       ___vcrt_EventUnregister    1001711f f   libvcruntime:winapi_downlevel.obj
 0001:00016159       ___vcrt_EventWriteTransfer 10017159 f   libvcruntime:winapi_downlevel.obj
 0001:000161a2       ___vcrt_FlsAlloc           100171a2 f   libvcruntime:winapi_downlevel.obj
 0001:000161dc       ___vcrt_FlsFree            100171dc f   libvcruntime:winapi_downlevel.obj
 0001:00016216       ___vcrt_FlsGetValue        10017216 f   libvcruntime:winapi_downlevel.obj
 0001:00016250       ___vcrt_FlsSetValue        10017250 f   libvcruntime:winapi_downlevel.obj
 0001:0001628d       ___vcrt_InitializeCriticalSectionEx 1001728d f   libvcruntime:winapi_downlevel.obj
 0001:000162d3       ___vcrt_initialize_winapi_thunks 100172d3 f   libvcruntime:winapi_downlevel.obj
 0001:000162f7       ___vcrt_uninitialize_winapi_thunks 100172f7 f   libvcruntime:winapi_downlevel.obj
 0001:00016363       ___telemetry_main_invoke_trigger 10017363 f   libvcruntime:telemetry.obj
 0001:000163ff       ___telemetry_main_return_trigger 100173ff f   libvcruntime:telemetry.obj
 0001:0001649b       ___vcrt_initialize_telemetry_provider 1001749b f   libvcruntime:telemetry.obj
 0001:000164ae       ___vcrt_uninitialize_telemetry_provider 100174ae f   libvcruntime:telemetry.obj
 0001:000164ba       ___std_type_info_compare   100174ba f   libvcruntime:std_type_info.obj
 0001:000164f6       ___std_type_info_destroy_list 100174f6 f   libvcruntime:std_type_info.obj
 0001:00016519       ___vcrt_initialize_pure_virtual_call_handler 10017519 f   libvcruntime:purevirt_data.obj
 0001:00016536       _unexpected                10017536 f   libvcruntime:unexpected.obj
 0001:00016552       ___vcrt_freefls@4          10017552 f   libvcruntime:per_thread_data.obj
 0001:0001656e       ___vcrt_freeptd            1001756e f   libvcruntime:per_thread_data.obj
 0001:000165a4       ___vcrt_getptd             100175a4 f   libvcruntime:per_thread_data.obj
 0001:000165b2       ___vcrt_getptd_noexit      100175b2 f   libvcruntime:per_thread_data.obj
 0001:0001662a       ___vcrt_initialize_ptd     1001762a f   libvcruntime:per_thread_data.obj
 0001:0001665d       ___vcrt_uninitialize_ptd   1001765d f   libvcruntime:per_thread_data.obj
 0001:00016680       __CallSettingFrame@12      10017680 f   libvcruntime:lowhelpr.obj
 0001:000166a7       __NLG_Return               100176a7     libvcruntime:lowhelpr.obj
 0001:000166cc       ___vcrt_initialize_locks   100176cc f   libvcruntime:locks.obj
 0001:00016708       ___vcrt_uninitialize_locks 10017708 f   libvcruntime:locks.obj
 0001:00016740       __local_unwind4            10017740 f   libvcruntime:_exsup4_.obj
 0001:00016816       __seh_longjmp_unwind4@4    10017816 f   libvcruntime:_exsup4_.obj
 0001:0001683e       @_EH4_CallFilterFunc@8     1001783e f   libvcruntime:_exsup4_.obj
 0001:00016855       @_EH4_TransferToHandler@8  10017855 f   libvcruntime:_exsup4_.obj
 0001:0001686e       @_EH4_GlobalUnwind2@8      1001786e f   libvcruntime:_exsup4_.obj
 0001:00016887       @_EH4_LocalUnwind@16       10017887 f   libvcruntime:_exsup4_.obj
 0001:000168a0       __global_unwind2           100178a0 f   libvcruntime:_exsup_.obj
 0001:00016905       __local_unwind2            10017905 f   libvcruntime:_exsup_.obj
 0001:00016989       __abnormal_termination     10017989 f   libvcruntime:_exsup_.obj
 0001:000169ac       __NLG_Notify1              100179ac f   libvcruntime:_exsup_.obj
 0001:000169b5       __NLG_Notify               100179b5 f   libvcruntime:_exsup_.obj
 0001:000169cc       __NLG_Dispatch             100179cc     libvcruntime:_exsup_.obj
 0001:000169cc       __NLG_Dispatch2            100179cc     libvcruntime:_exsup_.obj
 0001:000169d4       __NLG_Call                 100179d4 f   libvcruntime:_exsup_.obj
 0001:000169d6       __NLG_Return2              100179d6     libvcruntime:_exsup_.obj
 0001:000169d7       _abort                     100179d7 f   libucrt:abort.obj
 0001:00016a1a       ?initialize@?$dual_state_global@PAPAD@__crt_state_management@@QAEXQAPAD@Z 10017a1a f i libucrt:environment_initialization.obj
 0001:00016a1a       ?initialize@?$dual_state_global@P6AHI@Z@__crt_state_management@@QAEXQ6AHI@Z@Z 10017a1a f i libucrt:new_handler.obj
 0001:00016a1a       ?initialize@?$dual_state_global@PAU__crt_locale_data@@@__crt_state_management@@QAEXQAU__crt_locale_data@@@Z 10017a1a f i libucrt:initialization.obj
 0001:00016a1a       ?initialize@?$dual_state_global@P6AXH@Z@__crt_state_management@@QAEXQ6AXH@Z@Z 10017a1a f i libucrt:signal.obj
 0001:00016a1a       ?initialize@?$dual_state_global@H@__crt_state_management@@QAEXH@Z 10017a1a f i libucrt:timeset.obj
 0001:00016a1a       ?initialize@?$dual_state_global@P6AHPAU_exception@@@Z@__crt_state_management@@QAEXQ6AHPAU_exception@@@Z@Z 10017a1a f i libucrt:matherr.obj
 0001:00016a1a       ?initialize@?$dual_state_global@J@__crt_state_management@@QAEXJ@Z 10017a1a f i libucrt:timeset.obj
 0001:00016a1a       ?initialize@?$dual_state_global@P6AXPB_W00II@Z@__crt_state_management@@QAEXQ6AXPB_W00II@Z@Z 10017a1a f i libucrt:invalid_parameter.obj
 0001:00016a4b       ___acrt_call_reportfault   10017a4b f   libucrt:invalid_parameter.obj
 0001:00016b86       ___acrt_initialize_invalid_parameter_handler 10017b86 f   libucrt:invalid_parameter.obj
 0001:00016b9a       __invalid_parameter        10017b9a f   libucrt:invalid_parameter.obj
 0001:00016c15       __invalid_parameter_noinfo 10017c15 f   libucrt:invalid_parameter.obj
 0001:00016c25       __invalid_parameter_noinfo_noreturn 10017c25 f   libucrt:invalid_parameter.obj
 0001:00016c42       __invoke_watson            10017c42 f   libucrt:invalid_parameter.obj
 0001:00016c75       _free                      10017c75 f   libucrt:free.obj
 0001:000172de       ??$ftprintf@PAU_iobuf@@PB_WABQB_WABQB_WABI@?$__crt_char_traits@_W@@SAH$$QAPAU_iobuf@@$$QAPB_WABQB_W2ABI@Z 100182de f i libucrt:assert.obj
 0001:000173bd       __vfwprintf_l              100183bd f i libucrt:assert.obj
 0001:000173e2       __vswprintf_c_l            100183e2 f i libucrt:assert.obj
 0001:00017411       __wassert                  10018411 f   libucrt:assert.obj
 0001:00017459       _fwprintf                  10018459 f i libucrt:assert.obj
 0001:000174f5       _swprintf                  100184f5 f i libucrt:assert.obj
 0001:00017513       _malloc                    10018513 f   libucrt:malloc.obj
 0001:0001751e       ??$__crt_time_elapsed_leap_years@_J@@YA_J_J@Z 1001851e f i libucrt:mktime.obj
 0001:00017584       ??$__crt_time_is_leap_year@_J@@YA_N_J@Z 10018584 f i libucrt:mktime.obj
 0001:00017a16       __mktime64                 10018a16 f   libucrt:mktime.obj
 0001:00017aa8       __time64                   10018aa8 f   libucrt:time.obj
 0001:00017d74       __localtime64              10018d74 f   libucrt:localtime.obj
 0001:00017d9b       __localtime64_s            10018d9b f   libucrt:localtime.obj
 0001:00017da6       _calloc                    10018da6 f   libucrt:calloc.obj
 0001:00017dc0       _strcspn                   10018dc0 f   libucrt:strcspn.obj
 0001:00017e06       ??$?RV<lambda_ab9923ffb5d694ec0d78876dd103e44f>@@AAV<lambda_481dd5778c961fbcd3b60b650e9b9dc4>@@V<lambda_7923d86c9e3f319b415918ec4b39749c>@@@?$__crt_seh_guarded_call@H@@QAEH$$QAV<lambda_ab9923ffb5d694ec0d78876dd103e44f>@@AAV<lambda_481dd5778c961fbcd3b60b650e9b9dc4>@@$$QAV<lambda_7923d86c9e3f319b415918ec4b39749c>@@@Z 10018e06 f i libucrt:output.obj
 0001:00017e57       ??$__acrt_lock_stream_and_call@V<lambda_481dd5778c961fbcd3b60b650e9b9dc4>@@@@YAHQAU_iobuf@@$$QAV<lambda_481dd5778c961fbcd3b60b650e9b9dc4>@@@Z 10018e57 f i libucrt:output.obj
 0001:000181f8       ??$count@D@formatting_buffer@__crt_stdio_output@@QBEIXZ 100191f8 f i libucrt:output.obj
 0001:00018210       ??$ensure_buffer_is_big_enough@D@formatting_buffer@__crt_stdio_output@@QAE_NI@Z 10019210 f i libucrt:output.obj
 0001:00018296       ??$is_wide_character_specifier@D@__crt_stdio_output@@YA_N_KDW4length_modifier@0@@Z 10019296 f i libucrt:output.obj
 0001:000182d6       ??$is_wide_character_specifier@_W@__crt_stdio_output@@YA_N_K_WW4length_modifier@0@@Z 100192d6 f i libucrt:output.obj
 0001:00018325       ??$scratch_data@D@formatting_buffer@__crt_stdio_output@@QAEPADXZ 10019325 f i libucrt:output.obj
 0001:00018343       ??$type_case_integer_parse_into_buffer@I@?$output_processor@_WV?$stream_output_adapter@_W@__crt_stdio_output@@V?$standard_base@_WV?$stream_output_adapter@_W@__crt_stdio_output@@@2@@__crt_stdio_output@@AAEXII_N@Z 10019343 f i libucrt:output.obj
 0001:00018343       ??$type_case_integer_parse_into_buffer@I@?$output_processor@_WV?$string_output_adapter@_W@__crt_stdio_output@@V?$standard_base@_WV?$string_output_adapter@_W@__crt_stdio_output@@@2@@__crt_stdio_output@@AAEXII_N@Z 10019343 f i libucrt:output.obj
 0001:00018343       ??$type_case_integer_parse_into_buffer@I@?$output_processor@DV?$string_output_adapter@D@__crt_stdio_output@@V?$format_validation_base@DV?$string_output_adapter@D@__crt_stdio_output@@@2@@__crt_stdio_output@@AAEXII_N@Z 10019343 f i libucrt:output.obj
 0001:000183b8       ??$type_case_integer_parse_into_buffer@_K@?$output_processor@_WV?$stream_output_adapter@_W@__crt_stdio_output@@V?$standard_base@_WV?$stream_output_adapter@_W@__crt_stdio_output@@@2@@__crt_stdio_output@@AAEX_KI_N@Z 100193b8 f i libucrt:output.obj
 0001:000183b8       ??$type_case_integer_parse_into_buffer@_K@?$output_processor@DV?$string_output_adapter@D@__crt_stdio_output@@V?$format_validation_base@DV?$string_output_adapter@D@__crt_stdio_output@@@2@@__crt_stdio_output@@AAEX_KI_N@Z 100193b8 f i libucrt:output.obj
 0001:000183b8       ??$type_case_integer_parse_into_buffer@_K@?$output_processor@_WV?$string_output_adapter@_W@__crt_stdio_output@@V?$standard_base@_WV?$string_output_adapter@_W@__crt_stdio_output@@@2@@__crt_stdio_output@@AAEX_KI_N@Z 100193b8 f i libucrt:output.obj
 0001:00018440       ??$write_multiple_characters@V?$stream_output_adapter@_W@__crt_stdio_output@@D@__crt_stdio_output@@YAXABV?$stream_output_adapter@_W@0@DHQAH@Z 10019440 f i libucrt:output.obj
 0001:00018471       ??$write_multiple_characters@V?$string_output_adapter@D@__crt_stdio_output@@D@__crt_stdio_output@@YAXABV?$string_output_adapter@D@0@DHQAH@Z 10019471 f i libucrt:output.obj
 0001:0001849d       ??$write_multiple_characters@V?$string_output_adapter@_W@__crt_stdio_output@@D@__crt_stdio_output@@YAXABV?$string_output_adapter@_W@0@DHQAH@Z 1001949d f i libucrt:output.obj
 0001:000184ce       ??0?$common_data@D@__crt_stdio_output@@IAE@XZ 100194ce f i libucrt:output.obj
 0001:00018515       ??0?$common_data@_W@__crt_stdio_output@@IAE@XZ 10019515 f i libucrt:output.obj
 0001:00018561       ??0?$output_adapter_data@DV?$string_output_adapter@D@__crt_stdio_output@@@__crt_stdio_output@@IAE@ABV?$string_output_adapter@D@1@_KQBDQAU__crt_locale_pointers@@QAD@Z 10019561 f i libucrt:output.obj
 0001:0001859d       ??0?$output_adapter_data@_WV?$stream_output_adapter@_W@__crt_stdio_output@@@__crt_stdio_output@@IAE@ABV?$stream_output_adapter@_W@1@_KQB_WQAU__crt_locale_pointers@@QAD@Z 1001959d f i libucrt:output.obj
 0001:0001859d       ??0?$output_adapter_data@_WV?$string_output_adapter@_W@__crt_stdio_output@@@__crt_stdio_output@@IAE@ABV?$string_output_adapter@_W@1@_KQB_WQAU__crt_locale_pointers@@QAD@Z 1001959d f i libucrt:output.obj
 0001:000185d9       ??0?$output_processor@DV?$string_output_adapter@D@__crt_stdio_output@@V?$format_validation_base@DV?$string_output_adapter@D@__crt_stdio_output@@@2@@__crt_stdio_output@@QAE@ABV?$string_output_adapter@D@1@_KQBDQAU__crt_locale_pointers@@QAD@Z 100195d9 f i libucrt:output.obj
 0001:0001860e       ??0?$output_processor@_WV?$string_output_adapter@_W@__crt_stdio_output@@V?$standard_base@_WV?$string_output_adapter@_W@__crt_stdio_output@@@2@@__crt_stdio_output@@QAE@ABV?$string_output_adapter@_W@1@_KQB_WQAU__crt_locale_pointers@@QAD@Z 1001960e f i libucrt:output.obj
 0001:0001860e       ??0?$output_processor@_WV?$stream_output_adapter@_W@__crt_stdio_output@@V?$standard_base@_WV?$stream_output_adapter@_W@__crt_stdio_output@@@2@@__crt_stdio_output@@QAE@ABV?$stream_output_adapter@_W@1@_KQB_WQAU__crt_locale_pointers@@QAD@Z 1001960e f i libucrt:output.obj
 0001:00018643       ??0_LocaleUpdate@@QAE@QAU__crt_locale_pointers@@@Z 10019643 f i libucrt:output.obj
 0001:000186c6       ??1formatting_buffer@__crt_stdio_output@@QAE@XZ 100196c6 f i libucrt:output.obj
 0001:000186e0       ??4?$__crt_unique_heap_ptr@DU__crt_internal_free_policy@@@@QAEAAV0@$$QAV0@@Z 100196e0 f i libucrt:output.obj
 0001:000187c1       ?crop_zeroes@__crt_stdio_output@@YAXPADQAU__crt_locale_pointers@@@Z 100197c1 f i libucrt:output.obj
 0001:00018818       ?find_next_state@?$output_processor@DV?$string_output_adapter@D@__crt_stdio_output@@V?$format_validation_base@DV?$string_output_adapter@D@__crt_stdio_output@@@2@@__crt_stdio_output@@ABE?AW4state@2@DW432@@Z 10019818 f i libucrt:output.obj
 0001:0001884d       ?find_next_state@?$output_processor@_WV?$stream_output_adapter@_W@__crt_stdio_output@@V?$standard_base@_WV?$stream_output_adapter@_W@__crt_stdio_output@@@2@@__crt_stdio_output@@ABE?AW4state@2@_WW432@@Z 1001984d f i libucrt:output.obj
 0001:0001884d       ?find_next_state@?$output_processor@_WV?$string_output_adapter@_W@__crt_stdio_output@@V?$standard_base@_WV?$string_output_adapter@_W@__crt_stdio_output@@@2@@__crt_stdio_output@@ABE?AW4state@2@_WW432@@Z 1001984d f i libucrt:output.obj
 0001:00018881       ?force_decimal_point@__crt_stdio_output@@YAXPADQAU__crt_locale_pointers@@@Z 10019881 f i libucrt:output.obj
 0001:000188dd       ?parse_int_from_format_string@?$output_processor@DV?$string_output_adapter@D@__crt_stdio_output@@V?$format_validation_base@DV?$string_output_adapter@D@__crt_stdio_output@@@2@@__crt_stdio_output@@AAE_NQAH@Z 100198dd f i libucrt:output.obj
 0001:00018939       ?parse_int_from_format_string@?$output_processor@_WV?$stream_output_adapter@_W@__crt_stdio_output@@V?$standard_base@_WV?$stream_output_adapter@_W@__crt_stdio_output@@@2@@__crt_stdio_output@@AAE_NQAH@Z 10019939 f i libucrt:output.obj
 0001:00018939       ?parse_int_from_format_string@?$output_processor@_WV?$string_output_adapter@_W@__crt_stdio_output@@V?$standard_base@_WV?$string_output_adapter@_W@__crt_stdio_output@@@2@@__crt_stdio_output@@AAE_NQAH@Z 10019939 f i libucrt:output.obj
 0001:00018997       ?process@?$output_processor@DV?$string_output_adapter@D@__crt_stdio_output@@V?$format_validation_base@DV?$string_output_adapter@D@__crt_stdio_output@@@2@@__crt_stdio_output@@QAEHXZ 10019997 f i libucrt:output.obj
 0001:00018abf       ?process@?$output_processor@_WV?$stream_output_adapter@_W@__crt_stdio_output@@V?$standard_base@_WV?$stream_output_adapter@_W@__crt_stdio_output@@@2@@__crt_stdio_output@@QAEHXZ 10019abf f i libucrt:output.obj
 0001:00018bdf       ?process@?$output_processor@_WV?$string_output_adapter@_W@__crt_stdio_output@@V?$standard_base@_WV?$string_output_adapter@_W@__crt_stdio_output@@@2@@__crt_stdio_output@@QAEHXZ 10019bdf f i libucrt:output.obj
 0001:00018cff       ?state_case_flag@?$output_processor@DV?$string_output_adapter@D@__crt_stdio_output@@V?$format_validation_base@DV?$string_output_adapter@D@__crt_stdio_output@@@2@@__crt_stdio_output@@AAE_NXZ 10019cff f i libucrt:output.obj
 0001:00018d3c       ?state_case_flag@?$output_processor@_WV?$string_output_adapter@_W@__crt_stdio_output@@V?$standard_base@_WV?$string_output_adapter@_W@__crt_stdio_output@@@2@@__crt_stdio_output@@AAE_NXZ 10019d3c f i libucrt:output.obj
 0001:00018d3c       ?state_case_flag@?$output_processor@_WV?$stream_output_adapter@_W@__crt_stdio_output@@V?$standard_base@_WV?$stream_output_adapter@_W@__crt_stdio_output@@@2@@__crt_stdio_output@@AAE_NXZ 10019d3c f i libucrt:output.obj
 0001:00018d79       ?state_case_normal@?$output_processor@DV?$string_output_adapter@D@__crt_stdio_output@@V?$format_validation_base@DV?$string_output_adapter@D@__crt_stdio_output@@@2@@__crt_stdio_output@@AAE_NXZ 10019d79 f i libucrt:output.obj
 0001:00018d98       ?state_case_normal@?$output_processor@_WV?$stream_output_adapter@_W@__crt_stdio_output@@V?$standard_base@_WV?$stream_output_adapter@_W@__crt_stdio_output@@@2@@__crt_stdio_output@@AAE_NXZ 10019d98 f i libucrt:output.obj
 0001:00018db7       ?state_case_normal@?$output_processor@_WV?$string_output_adapter@_W@__crt_stdio_output@@V?$standard_base@_WV?$string_output_adapter@_W@__crt_stdio_output@@@2@@__crt_stdio_output@@AAE_NXZ 10019db7 f i libucrt:output.obj
 0001:00018dd6       ?state_case_normal_common@?$output_processor@DV?$string_output_adapter@D@__crt_stdio_output@@V?$format_validation_base@DV?$string_output_adapter@D@__crt_stdio_output@@@2@@__crt_stdio_output@@AAE_NXZ 10019dd6 f i libucrt:output.obj
 0001:00018e00       ?state_case_normal_common@?$output_processor@_WV?$stream_output_adapter@_W@__crt_stdio_output@@V?$standard_base@_WV?$stream_output_adapter@_W@__crt_stdio_output@@@2@@__crt_stdio_output@@AAE_NXZ 10019e00 f i libucrt:output.obj
 0001:00018e1b       ?state_case_normal_common@?$output_processor@_WV?$string_output_adapter@_W@__crt_stdio_output@@V?$standard_base@_WV?$string_output_adapter@_W@__crt_stdio_output@@@2@@__crt_stdio_output@@AAE_NXZ 10019e1b f i libucrt:output.obj
 0001:00018e36       ?state_case_normal_tchar@?$output_processor@DV?$string_output_adapter@D@__crt_stdio_output@@V?$format_validation_base@DV?$string_output_adapter@D@__crt_stdio_output@@@2@@__crt_stdio_output@@AAE_ND@Z 10019e36 f i libucrt:output.obj
 0001:00018e97       ?state_case_precision@?$output_processor@DV?$string_output_adapter@D@__crt_stdio_output@@V?$format_validation_base@DV?$string_output_adapter@D@__crt_stdio_output@@@2@@__crt_stdio_output@@AAE_NXZ 10019e97 f i libucrt:output.obj
 0001:00018ebf       ?state_case_precision@?$output_processor@_WV?$string_output_adapter@_W@__crt_stdio_output@@V?$standard_base@_WV?$string_output_adapter@_W@__crt_stdio_output@@@2@@__crt_stdio_output@@AAE_NXZ 10019ebf f i libucrt:output.obj
 0001:00018ebf       ?state_case_precision@?$output_processor@_WV?$stream_output_adapter@_W@__crt_stdio_output@@V?$standard_base@_WV?$stream_output_adapter@_W@__crt_stdio_output@@@2@@__crt_stdio_output@@AAE_NXZ 10019ebf f i libucrt:output.obj
 0001:00018ee8       ?state_case_size@?$output_processor@DV?$string_output_adapter@D@__crt_stdio_output@@V?$format_validation_base@DV?$string_output_adapter@D@__crt_stdio_output@@@2@@__crt_stdio_output@@AAE_NXZ 10019ee8 f i libucrt:output.obj
 0001:00019051       ?state_case_size@?$output_processor@_WV?$stream_output_adapter@_W@__crt_stdio_output@@V?$standard_base@_WV?$stream_output_adapter@_W@__crt_stdio_output@@@2@@__crt_stdio_output@@AAE_NXZ 1001a051 f i libucrt:output.obj
 0001:000191cd       ?state_case_size@?$output_processor@_WV?$string_output_adapter@_W@__crt_stdio_output@@V?$standard_base@_WV?$string_output_adapter@_W@__crt_stdio_output@@@2@@__crt_stdio_output@@AAE_NXZ 1001a1cd f i libucrt:output.obj
 0001:00019349       ?state_case_type@?$output_processor@DV?$string_output_adapter@D@__crt_stdio_output@@V?$format_validation_base@DV?$string_output_adapter@D@__crt_stdio_output@@@2@@__crt_stdio_output@@AAE_NXZ 1001a349 f i libucrt:output.obj
 0001:00019578       ?state_case_type@?$output_processor@_WV?$stream_output_adapter@_W@__crt_stdio_output@@V?$standard_base@_WV?$stream_output_adapter@_W@__crt_stdio_output@@@2@@__crt_stdio_output@@AAE_NXZ 1001a578 f i libucrt:output.obj
 0001:000197d5       ?state_case_type@?$output_processor@_WV?$string_output_adapter@_W@__crt_stdio_output@@V?$standard_base@_WV?$string_output_adapter@_W@__crt_stdio_output@@@2@@__crt_stdio_output@@AAE_NXZ 1001a7d5 f i libucrt:output.obj
 0001:00019a32       ?state_case_width@?$output_processor@DV?$string_output_adapter@D@__crt_stdio_output@@V?$format_validation_base@DV?$string_output_adapter@D@__crt_stdio_output@@@2@@__crt_stdio_output@@AAE_NXZ 1001aa32 f i libucrt:output.obj
 0001:00019a5d       ?state_case_width@?$output_processor@_WV?$string_output_adapter@_W@__crt_stdio_output@@V?$standard_base@_WV?$string_output_adapter@_W@__crt_stdio_output@@@2@@__crt_stdio_output@@AAE_NXZ 1001aa5d f i libucrt:output.obj
 0001:00019a5d       ?state_case_width@?$output_processor@_WV?$stream_output_adapter@_W@__crt_stdio_output@@V?$standard_base@_WV?$stream_output_adapter@_W@__crt_stdio_output@@@2@@__crt_stdio_output@@AAE_NXZ 1001aa5d f i libucrt:output.obj
 0001:00019a89       ?to_integer_size@__crt_stdio_output@@YAIW4length_modifier@1@@Z 1001aa89 f i libucrt:output.obj
 0001:00019ae5       ?type_case_Z@?$output_processor@DV?$string_output_adapter@D@__crt_stdio_output@@V?$format_validation_base@DV?$string_output_adapter@D@__crt_stdio_output@@@2@@__crt_stdio_output@@AAE_NXZ 1001aae5 f i libucrt:output.obj
 0001:00019b48       ?type_case_Z@?$output_processor@_WV?$stream_output_adapter@_W@__crt_stdio_output@@V?$standard_base@_WV?$stream_output_adapter@_W@__crt_stdio_output@@@2@@__crt_stdio_output@@AAE_NXZ 1001ab48 f i libucrt:output.obj
 0001:00019b48       ?type_case_Z@?$output_processor@_WV?$string_output_adapter@_W@__crt_stdio_output@@V?$standard_base@_WV?$string_output_adapter@_W@__crt_stdio_output@@@2@@__crt_stdio_output@@AAE_NXZ 1001ab48 f i libucrt:output.obj
 0001:00019bab       ?type_case_a@?$output_processor@DV?$string_output_adapter@D@__crt_stdio_output@@V?$format_validation_base@DV?$string_output_adapter@D@__crt_stdio_output@@@2@@__crt_stdio_output@@AAE_NXZ 1001abab f i libucrt:output.obj
 0001:00019d05       ?type_case_a@?$output_processor@_WV?$string_output_adapter@_W@__crt_stdio_output@@V?$standard_base@_WV?$string_output_adapter@_W@__crt_stdio_output@@@2@@__crt_stdio_output@@AAE_NXZ 1001ad05 f i libucrt:output.obj
 0001:00019d05       ?type_case_a@?$output_processor@_WV?$stream_output_adapter@_W@__crt_stdio_output@@V?$standard_base@_WV?$stream_output_adapter@_W@__crt_stdio_output@@@2@@__crt_stdio_output@@AAE_NXZ 1001ad05 f i libucrt:output.obj
 0001:00019e77       ?type_case_c_tchar@?$output_processor@DV?$string_output_adapter@D@__crt_stdio_output@@V?$format_validation_base@DV?$string_output_adapter@D@__crt_stdio_output@@@2@@__crt_stdio_output@@AAE_ND@Z 1001ae77 f i libucrt:output.obj
 0001:00019f07       ?type_case_c_tchar@?$output_processor@_WV?$string_output_adapter@_W@__crt_stdio_output@@V?$standard_base@_WV?$string_output_adapter@_W@__crt_stdio_output@@@2@@__crt_stdio_output@@AAE_N_W@Z 1001af07 f i libucrt:output.obj
 0001:00019f07       ?type_case_c_tchar@?$output_processor@_WV?$stream_output_adapter@_W@__crt_stdio_output@@V?$standard_base@_WV?$stream_output_adapter@_W@__crt_stdio_output@@@2@@__crt_stdio_output@@AAE_N_W@Z 1001af07 f i libucrt:output.obj
 0001:00019f9f       ?type_case_integer@?$output_processor@_WV?$stream_output_adapter@_W@__crt_stdio_output@@V?$standard_base@_WV?$stream_output_adapter@_W@__crt_stdio_output@@@2@@__crt_stdio_output@@AAE_NI_N@Z 1001af9f f i libucrt:output.obj
 0001:00019f9f       ?type_case_integer@?$output_processor@DV?$string_output_adapter@D@__crt_stdio_output@@V?$format_validation_base@DV?$string_output_adapter@D@__crt_stdio_output@@@2@@__crt_stdio_output@@AAE_NI_N@Z 1001af9f f i libucrt:output.obj
 0001:00019f9f       ?type_case_integer@?$output_processor@_WV?$string_output_adapter@_W@__crt_stdio_output@@V?$standard_base@_WV?$string_output_adapter@_W@__crt_stdio_output@@@2@@__crt_stdio_output@@AAE_NI_N@Z 1001af9f f i libucrt:output.obj
 0001:0001a0e9       ?type_case_n@?$output_processor@_WV?$string_output_adapter@_W@__crt_stdio_output@@V?$standard_base@_WV?$string_output_adapter@_W@__crt_stdio_output@@@2@@__crt_stdio_output@@AAE_NXZ 1001b0e9 f i libucrt:output.obj
 0001:0001a0e9       ?type_case_n@?$output_processor@_WV?$stream_output_adapter@_W@__crt_stdio_output@@V?$standard_base@_WV?$stream_output_adapter@_W@__crt_stdio_output@@@2@@__crt_stdio_output@@AAE_NXZ 1001b0e9 f i libucrt:output.obj
 0001:0001a0e9       ?type_case_n@?$output_processor@DV?$string_output_adapter@D@__crt_stdio_output@@V?$format_validation_base@DV?$string_output_adapter@D@__crt_stdio_output@@@2@@__crt_stdio_output@@AAE_NXZ 1001b0e9 f i libucrt:output.obj
 0001:0001a15d       ?type_case_o@?$output_processor@DV?$string_output_adapter@D@__crt_stdio_output@@V?$format_validation_base@DV?$string_output_adapter@D@__crt_stdio_output@@@2@@__crt_stdio_output@@AAE_NXZ 1001b15d f i libucrt:output.obj
 0001:0001a15d       ?type_case_o@?$output_processor@_WV?$string_output_adapter@_W@__crt_stdio_output@@V?$standard_base@_WV?$string_output_adapter@_W@__crt_stdio_output@@@2@@__crt_stdio_output@@AAE_NXZ 1001b15d f i libucrt:output.obj
 0001:0001a15d       ?type_case_o@?$output_processor@_WV?$stream_output_adapter@_W@__crt_stdio_output@@V?$standard_base@_WV?$stream_output_adapter@_W@__crt_stdio_output@@@2@@__crt_stdio_output@@AAE_NXZ 1001b15d f i libucrt:output.obj
 0001:0001a17c       ?type_case_p@?$output_processor@DV?$string_output_adapter@D@__crt_stdio_output@@V?$format_validation_base@DV?$string_output_adapter@D@__crt_stdio_output@@@2@@__crt_stdio_output@@AAE_NXZ 1001b17c f i libucrt:output.obj
 0001:0001a17c       ?type_case_p@?$output_processor@_WV?$string_output_adapter@_W@__crt_stdio_output@@V?$standard_base@_WV?$string_output_adapter@_W@__crt_stdio_output@@@2@@__crt_stdio_output@@AAE_NXZ 1001b17c f i libucrt:output.obj
 0001:0001a17c       ?type_case_p@?$output_processor@_WV?$stream_output_adapter@_W@__crt_stdio_output@@V?$standard_base@_WV?$stream_output_adapter@_W@__crt_stdio_output@@@2@@__crt_stdio_output@@AAE_NXZ 1001b17c f i libucrt:output.obj
 0001:0001a194       ?type_case_s@?$output_processor@DV?$string_output_adapter@D@__crt_stdio_output@@V?$format_validation_base@DV?$string_output_adapter@D@__crt_stdio_output@@@2@@__crt_stdio_output@@AAE_NXZ 1001b194 f i libucrt:output.obj
 0001:0001a207       ?type_case_s@?$output_processor@_WV?$stream_output_adapter@_W@__crt_stdio_output@@V?$standard_base@_WV?$stream_output_adapter@_W@__crt_stdio_output@@@2@@__crt_stdio_output@@AAE_NXZ 1001b207 f i libucrt:output.obj
 0001:0001a207       ?type_case_s@?$output_processor@_WV?$string_output_adapter@_W@__crt_stdio_output@@V?$standard_base@_WV?$string_output_adapter@_W@__crt_stdio_output@@@2@@__crt_stdio_output@@AAE_NXZ 1001b207 f i libucrt:output.obj
 0001:0001a27b       ?type_case_s_compute_narrow_string_length@?$output_processor@_WV?$stream_output_adapter@_W@__crt_stdio_output@@V?$standard_base@_WV?$stream_output_adapter@_W@__crt_stdio_output@@@2@@__crt_stdio_output@@ABEHH_W@Z 1001b27b f i libucrt:output.obj
 0001:0001a27b       ?type_case_s_compute_narrow_string_length@?$output_processor@_WV?$string_output_adapter@_W@__crt_stdio_output@@V?$standard_base@_WV?$string_output_adapter@_W@__crt_stdio_output@@@2@@__crt_stdio_output@@ABEHH_W@Z 1001b27b f i libucrt:output.obj
 0001:0001a2bb       ?validate@?$c_string_character_source@D@__crt_strtox@@QBE_NXZ 1001b2bb f i libucrt:atox.obj
 0001:0001a2bb       ?validate@?$c_string_character_source@_W@__crt_strtox@@QBE_NXZ 1001b2bb f i libucrt:atox.obj
 0001:0001a2bb       ?validate@?$stream_output_adapter@_W@__crt_stdio_output@@QBE_NXZ 1001b2bb f i libucrt:output.obj
 0001:0001a2bb       ?validate@?$string_output_adapter@_W@__crt_stdio_output@@QBE_NXZ 1001b2bb f i libucrt:output.obj
 0001:0001a2bb       ?validate@?$string_output_adapter@D@__crt_stdio_output@@QBE_NXZ 1001b2bb f i libucrt:output.obj
 0001:0001a2d6       ?validate_and_update_state_at_end_of_format_string@?$format_validation_base@DV?$string_output_adapter@D@__crt_stdio_output@@@__crt_stdio_output@@IBE_NXZ 1001b2d6 f i libucrt:output.obj
 0001:0001a2f8       ?write_character@?$stream_output_adapter@_W@__crt_stdio_output@@QBEX_WQAH@Z 1001b2f8 f i libucrt:output.obj
 0001:0001a338       ?write_character@?$string_output_adapter@D@__crt_stdio_output@@QBE_NDQAH@Z 1001b338 f i libucrt:output.obj
 0001:0001a37a       ?write_character@?$string_output_adapter@_W@__crt_stdio_output@@QBE_N_WQAH@Z 1001b37a f i libucrt:output.obj
 0001:0001a3bf       ?write_stored_string_tchar@?$output_processor@DV?$string_output_adapter@D@__crt_stdio_output@@V?$format_validation_base@DV?$string_output_adapter@D@__crt_stdio_output@@@2@@__crt_stdio_output@@AAE_ND@Z 1001b3bf f i libucrt:output.obj
 0001:0001a466       ?write_stored_string_tchar@?$output_processor@_WV?$stream_output_adapter@_W@__crt_stdio_output@@V?$standard_base@_WV?$stream_output_adapter@_W@__crt_stdio_output@@@2@@__crt_stdio_output@@AAE_N_W@Z 1001b466 f i libucrt:output.obj
 0001:0001a4f1       ?write_stored_string_tchar@?$output_processor@_WV?$string_output_adapter@_W@__crt_stdio_output@@V?$standard_base@_WV?$string_output_adapter@_W@__crt_stdio_output@@@2@@__crt_stdio_output@@AAE_N_W@Z 1001b4f1 f i libucrt:output.obj
 0001:0001a57c       ?write_string@?$stream_output_adapter@_W@__crt_stdio_output@@QBEXQB_WHQAH1@Z 1001b57c f i libucrt:output.obj
 0001:0001a609       ?write_string@?$string_output_adapter@D@__crt_stdio_output@@QBEXQBDHQAH1@Z 1001b609 f i libucrt:output.obj
 0001:0001a69c       ?write_string@?$string_output_adapter@_W@__crt_stdio_output@@QBEXQB_WHQAH1@Z 1001b69c f i libucrt:output.obj
 0001:0001a736       ___stdio_common_vfwprintf  1001b736 f   libucrt:output.obj
 0001:0001a7ad       ___stdio_common_vsprintf_s 1001b7ad f   libucrt:output.obj
 0001:0001a7d1       ___stdio_common_vswprintf  1001b7d1 f   libucrt:output.obj
 0001:0001a7f5       _localeconv                1001b7f5 f   libucrt:localeconv.obj
 0001:0001a81f       _frexp                     1001b81f f   libucrt:frexp.obj
 0001:0001a91b       ___ascii_stricmp           1001b91b f   libucrt:stricmp.obj
 0001:0001a956       __stricmp                  1001b956 f   libucrt:stricmp.obj
 0001:0001a99e       __stricmp_l                1001b99e f   libucrt:stricmp.obj
 0001:0001aa38       ___acrt_initialize_locks   1001ba38 f   libucrt:locks.obj
 0001:0001aa79       ___acrt_lock               1001ba79 f   libucrt:locks.obj
 0001:0001aa90       ___acrt_uninitialize_locks 1001ba90 f   libucrt:locks.obj
 0001:0001aac1       ___acrt_unlock             1001bac1 f   libucrt:locks.obj
 0001:0001aad8       __lock_locales             1001bad8 f   libucrt:locks.obj
 0001:0001aae1       __unlock_locales           1001bae1 f   libucrt:locks.obj
 0001:0001aaea       ___acrt_errno_from_os_error 1001baea f   libucrt:errno.obj
 0001:0001ab2d       ___acrt_errno_map_os_error 1001bb2d f   libucrt:errno.obj
 0001:0001ab50       ___doserrno                1001bb50 f   libucrt:errno.obj
 0001:0001ab63       __errno                    1001bb63 f   libucrt:errno.obj
 0001:0001ab76       ___acrt_initialize_stdio   1001bb76 f   libucrt:_file.obj
 0001:0001ac3e       ___acrt_iob_func           1001bc3e f   libucrt:_file.obj
 0001:0001ac4e       ___acrt_uninitialize_stdio 1001bc4e f   libucrt:_file.obj
 0001:0001ac9a       __get_stream_buffer_pointers 1001bc9a f   libucrt:_file.obj
 0001:0001ace0       __lock_file                1001bce0 f   libucrt:_file.obj
 0001:0001acf4       __unlock_file              1001bcf4 f   libucrt:_file.obj
 0001:0001ad08       __fclose_nolock            1001bd08 f   libucrt:fclose.obj
 0001:0001ad7e       _fclose                    1001bd7e f   libucrt:fclose.obj
 0001:0001adfe       ___acrt_stdio_flush_nolock 1001bdfe f   libucrt:fflush.obj
 0001:0001ae64       __fflush_nolock            1001be64 f   libucrt:fflush.obj
 0001:0001aeab       __flushall                 1001beab f   libucrt:fflush.obj
 0001:0001af8c       _fflush                    1001bf8c f   libucrt:fflush.obj
 0001:0001afe5       __fgetc_nolock             1001bfe5 f   libucrt:fgetc.obj
 0001:0001b021       _fgetc                     1001c021 f   libucrt:fgetc.obj
 0001:0001b123       _fgetpos                   1001c123 f   libucrt:fgetpos.obj
 0001:0001b17e       __fputc_nolock             1001c17e f   libucrt:fputc.obj
 0001:0001b1a7       _fputc                     1001c1a7 f   libucrt:fputc.obj
 0001:0001b2ab       _fsetpos                   1001c2ab f   libucrt:fsetpos.obj
 0001:0001b2e6       ?LongLongSub@@YAJ_J0PA_J@Z 1001c2e6 f i libucrt:fseek.obj
 0001:0001b5a0       __fseeki64                 1001c5a0 f   libucrt:fseek.obj
 0001:0001b5bb       ??$?RV<lambda_11b4f7b0d3157825a5656a18eba1ae27>@@AAV<lambda_b51c0495177f500e782686251704ae76>@@V<lambda_cf89b47920b5017557bfe891e78aca36>@@@?$__crt_seh_guarded_call@I@@QAEI$$QAV<lambda_11b4f7b0d3157825a5656a18eba1ae27>@@AAV<lambda_b51c0495177f500e782686251704ae76>@@$$QAV<lambda_cf89b47920b5017557bfe891e78aca36>@@@Z 1001c5bb f i libucrt:fwrite.obj
 0001:0001b60c       ??$__acrt_lock_stream_and_call@V<lambda_b51c0495177f500e782686251704ae76>@@@@YAIQAU_iobuf@@$$QAV<lambda_b51c0495177f500e782686251704ae76>@@@Z 1001c60c f i libucrt:fwrite.obj
 0001:0001b67a       __fwrite_nolock            1001c67a f   libucrt:fwrite.obj
 0001:0001b7f3       _fwrite                    1001c7f3 f   libucrt:fwrite.obj
 0001:0001b84b       ??$?RV<lambda_d92cfe8357b99225085016881b624cb0>@@AAV<lambda_b721fa326cdb32351d23dfa67958c160>@@V<lambda_42d75b0848218ec137fa420c8ba9fdf9>@@@?$__crt_seh_guarded_call@H@@QAEH$$QAV<lambda_d92cfe8357b99225085016881b624cb0>@@AAV<lambda_b721fa326cdb32351d23dfa67958c160>@@$$QAV<lambda_42d75b0848218ec137fa420c8ba9fdf9>@@@Z 1001c84b f i libucrt:setvbuf.obj
 0001:0001b89c       ??$__acrt_lock_stream_and_call@V<lambda_b721fa326cdb32351d23dfa67958c160>@@@@YAHQAU_iobuf@@$$QAV<lambda_b721fa326cdb32351d23dfa67958c160>@@@Z 1001c89c f i libucrt:setvbuf.obj
 0001:0001b991       _setvbuf                   1001c991 f   libucrt:setvbuf.obj
 0001:0001ba07       __ungetc_nolock            1001ca07 f   libucrt:ungetc.obj
 0001:0001baf6       _ungetc                    1001caf6 f   libucrt:ungetc.obj
 0001:0001bc03       _setlocale                 1001cc03 f   libucrt:setlocale.obj
 0001:0001bd60       __calloc_base              1001cd60 f   libucrt:calloc_base.obj
 0001:0001bdbd       ___pctype_func             1001cdbd f   libucrt:ctype.obj
 0001:0001bde3       __chvalidchk_l             1001cde3 f i libucrt:_ctype.obj
 0001:0001be0d       __ischartype_l             1001ce0d f i libucrt:_ctype.obj
 0001:0001be40       __isdigit_l                1001ce40 f i libucrt:_ctype.obj
 0001:0001be78       __islower_l                1001ce78 f i libucrt:_ctype.obj
 0001:0001beb0       __isupper_l                1001ceb0 f i libucrt:_ctype.obj
 0001:0001bee8       _isdigit                   1001cee8 f i libucrt:_ctype.obj
 0001:0001bf15       _islower                   1001cf15 f i libucrt:_ctype.obj
 0001:0001bf42       _isupper                   1001cf42 f i libucrt:_ctype.obj
 0001:0001bf6f       __wcsdup                   1001cf6f f   libucrt:wcsdup.obj
 0001:0001bfd0       ____lc_codepage_func       1001cfd0 f   libucrt:initctype.obj
 0001:0001bff7       ____lc_locale_name_func    1001cff7 f   libucrt:initctype.obj
 0001:0001c020       ____mb_cur_max_func        1001d020 f   libucrt:initctype.obj
 0001:0001c047       ___acrt_locale_initialize_ctype 1001d047 f   libucrt:initctype.obj
 0001:0001c43e       __ismbblead                1001d43e f   libucrt:ismbbyte.obj
 0001:0001c456       __malloc_base              1001d456 f   libucrt:malloc_base.obj
 0001:0001c4a4       __realloc_base             1001d4a4 f   libucrt:realloc_base.obj
 0001:0001c50d       ___strncnt                 1001d50d f   libucrt:strncnt.obj
 0001:0001c529       __free_base                1001d529 f   libucrt:free_base.obj
 0001:0001c563       ??$__crt_time_is_leap_year@H@@YA_NH@Z 1001d563 f i libucrt:wcsftime.obj
 0001:0001c70b       __tolower_l                1001d70b f   libucrt:tolower_toupper.obj
 0001:0001c725       _tolower                   1001d725 f   libucrt:tolower_toupper.obj
 0001:0001c755       _wcscpy_s                  1001d755 f   libucrt:wcscpy_s.obj
 0001:0001c7b9       _strnlen                   1001d7b9 f   libucrt:strnlen.obj
 0001:0001c8e0       _wcsnlen                   1001d8e0 f   libucrt:strnlen.obj
 0001:0001caa0       __CIsqrt                   1001daa0 f   libucrt:sqrt.obj
 0001:0001cab4       _sqrt                      1001dab4     libucrt:sqrt.obj
 0001:0001cb5a       __seh_filter_dll           1001db5a f   libucrt:exception_filter.obj
 0001:0001cb7a       __seh_filter_exe           1001db7a f   libucrt:exception_filter.obj
 0001:0001cf08       ___acrt_initialize_thread_local_exit_callback 1001df08 f   libucrt:exit.obj
 0001:0001cf17       __cexit                    1001df17 f   libucrt:exit.obj
 0001:0001cf26       __exit                     1001df26 f   libucrt:exit.obj
 0001:0001cf3c       __is_c_termination_complete 1001df3c f   libucrt:exit.obj
 0001:0001d149       ??$uninitialize@A6AXAAPAPA_W@Z@?$dual_state_global@PAPA_W@__crt_state_management@@QAEXA6AXAAPAPA_W@Z@Z 1001e149 f i libucrt:environment_initialization.obj
 0001:0001d149       ??$uninitialize@A6AXAAPAPAD@Z@?$dual_state_global@PAPAD@__crt_state_management@@QAEXA6AXAAPAPAD@Z@Z 1001e149 f i libucrt:environment_initialization.obj
 0001:0001d1bf       ___dcrt_get_or_create_narrow_environment_nolock 1001e1bf f   libucrt:environment_initialization.obj
 0001:0001d1c4       ___dcrt_uninitialize_environments_nolock 1001e1c4 f   libucrt:environment_initialization.obj
 0001:0001d1fb       __initialize_narrow_environment 1001e1fb f   libucrt:environment_initialization.obj
 0001:0001d200       ??$?RV<lambda_800076c951b434888f4765a74a194fcc>@@AAV<lambda_4e60a939b0d047cfe11ddc22648dfba9>@@V<lambda_6dbb1268764f43b569ce7b67e331d33a>@@@?$__crt_seh_guarded_call@H@@QAEH$$QAV<lambda_800076c951b434888f4765a74a194fcc>@@AAV<lambda_4e60a939b0d047cfe11ddc22648dfba9>@@$$QAV<lambda_6dbb1268764f43b569ce7b67e331d33a>@@@Z 1001e200 f i libucrt:onexit.obj
 0001:0001d251       ??$?RV<lambda_995298e7d72eb4c2aab26c0585b3abe5>@@AAV<lambda_275893d493268fdec8709772e3fcec0e>@@V<lambda_293819299cbf9a7022e18b56a874bb5c>@@@?$__crt_seh_guarded_call@H@@QAEH$$QAV<lambda_995298e7d72eb4c2aab26c0585b3abe5>@@AAV<lambda_275893d493268fdec8709772e3fcec0e>@@$$QAV<lambda_293819299cbf9a7022e18b56a874bb5c>@@@Z 1001e251 f i libucrt:onexit.obj
 0001:0001d2a2       ??$__acrt_lock_and_call@V<lambda_275893d493268fdec8709772e3fcec0e>@@@@YAHW4__acrt_lock_id@@$$QAV<lambda_275893d493268fdec8709772e3fcec0e>@@@Z 1001e2a2 f i libucrt:onexit.obj
 0001:0001d2ca       ??$__acrt_lock_and_call@V<lambda_4e60a939b0d047cfe11ddc22648dfba9>@@@@YAHW4__acrt_lock_id@@$$QAV<lambda_4e60a939b0d047cfe11ddc22648dfba9>@@@Z 1001e2ca f i libucrt:onexit.obj
 0001:0001d553       __crt_atexit               1001e553 f   libucrt:onexit.obj
 0001:0001d569       __execute_onexit_table     1001e569 f   libucrt:onexit.obj
 0001:0001d586       __initialize_onexit_table  1001e586 f   libucrt:onexit.obj
 0001:0001d5c3       __register_onexit_function 1001e5c3 f   libucrt:onexit.obj
 0001:0001d61b       ?do_always_noconv@?$codecvt@DDU_Mbstatet@@@std@@MBE_NXZ 1001e61b f   libcpmt:cout.obj
 0001:0001d61b       ___acrt_uninitialize_command_line 1001e61b f   libucrt:argv_data.obj
 0001:0001d6db       ___acrt_initialize         1001e6db f   libucrt:initialization.obj
 0001:0001d6ed       ___acrt_thread_attach      1001e6ed f   libucrt:initialization.obj
 0001:0001d6f8       ___acrt_thread_detach      1001e6f8 f   libucrt:initialization.obj
 0001:0001d700       ___acrt_uninitialize       1001e700 f   libucrt:initialization.obj
 0001:0001d712       ___acrt_uninitialize_critical 1001e712 f   libucrt:initialization.obj
 0001:0001d724       ___acrt_initialize_new_handler 1001e724 f   libucrt:new_handler.obj
 0001:0001d738       __callnewh                 1001e738 f   libucrt:new_handler.obj
 0001:0001d77c       __query_new_handler        1001e77c f   libucrt:new_handler.obj
 0001:0001d7ce       __initterm                 1001e7ce f   libucrt:initterm.obj
 0001:0001d82a       __initterm_e               1001e82a f   libucrt:initterm.obj
 0001:0001d86f       _terminate                 1001e86f f   libucrt:terminate.obj
 0001:0001d8ab       _strcpy_s                  1001e8ab f   libucrt:strcpy_s.obj
 0001:0001d905       ??$is_overflow_condition@K@__crt_strtox@@YA_NIK@Z 1001e905 f i libucrt:atox.obj
 0001:0001d938       ??$make_c_string_character_source@D$$T@__crt_strtox@@YA?AV?$c_string_character_source@D@0@QBD$$T@Z 1001e938 f i libucrt:atox.obj
 0001:0001d938       ??$make_c_string_character_source@_WPAPA_W@__crt_strtox@@YA?AV?$c_string_character_source@_W@0@QB_WQAPA_W@Z 1001e938 f i libucrt:strtox.obj
 0001:0001d938       ??$make_c_string_character_source@DPAPAD@__crt_strtox@@YA?AV?$c_string_character_source@D@0@QBDQAPAD@Z 1001e938 f i libucrt:strtox.obj
 0001:0001d938       ??$make_c_string_character_source@_W$$T@__crt_strtox@@YA?AV?$c_string_character_source@_W@0@QB_W$$T@Z 1001e938 f i libucrt:atox.obj
 0001:0001d953       ??$parse_integer@KV?$c_string_character_source@D@__crt_strtox@@@__crt_strtox@@YAKQAU__crt_locale_pointers@@V?$c_string_character_source@D@0@H_N@Z 1001e953 f i libucrt:atox.obj
 0001:0001db7b       ??$parse_integer@KV?$c_string_character_source@_W@__crt_strtox@@@__crt_strtox@@YAKQAU__crt_locale_pointers@@V?$c_string_character_source@_W@0@H_N@Z 1001eb7b f i libucrt:atox.obj
 0001:0001e260       ?unget@?$c_string_character_source@D@__crt_strtox@@QAEXD@Z 1001f260 f i libucrt:atox.obj
 0001:0001e288       ?unget@?$c_string_character_source@_W@__crt_strtox@@QAEX_W@Z 1001f288 f i libucrt:atox.obj
 0001:0001e2b4       __wtol                     1001f2b4 f   libucrt:atox.obj
 0001:0001e2de       _atol                      1001f2de f   libucrt:atox.obj
 0001:0001e308       ??$?RV<lambda_a048d3beccc847880fc8490e18b82769>@@AAV<lambda_ec61778202f4f5fc7e7711acc23c3bca>@@V<lambda_f7496a158712204296dd6628a163878e>@@@?$__crt_seh_guarded_call@P6AXH@Z@@QAEP6AXH@Z$$QAV<lambda_a048d3beccc847880fc8490e18b82769>@@AAV<lambda_ec61778202f4f5fc7e7711acc23c3bca>@@$$QAV<lambda_f7496a158712204296dd6628a163878e>@@@Z 1001f308 f i libucrt:signal.obj
 0001:0001e362       ??$__acrt_lock_and_call@V<lambda_ec61778202f4f5fc7e7711acc23c3bca>@@@@YAP6AXH@ZW4__acrt_lock_id@@$$QAV<lambda_ec61778202f4f5fc7e7711acc23c3bca>@@@Z 1001f362 f i libucrt:signal.obj
 0001:0001e3f4       ___acrt_get_sigabrt_handler 1001f3f4 f   libucrt:signal.obj
 0001:0001e40b       ___acrt_initialize_signal_handlers 1001f40b f   libucrt:signal.obj
 0001:0001e446       ___fpecode                 1001f446 f   libucrt:signal.obj
 0001:0001e44f       _raise                     1001f44f f   libucrt:signal.obj
 0001:0001e657       ??$?RV<lambda_3518db117f0e7cdb002338c5d3c47b6c>@@AAV<lambda_b2ea41f6bbb362cd97d94c6828d90b61>@@V<lambda_abdedf541bb04549bc734292b4a045d4>@@@?$__crt_seh_guarded_call@X@@QAEX$$QAV<lambda_3518db117f0e7cdb002338c5d3c47b6c>@@AAV<lambda_b2ea41f6bbb362cd97d94c6828d90b61>@@$$QAV<lambda_abdedf541bb04549bc734292b4a045d4>@@@Z 1001f657 f i libucrt:per_thread_data.obj
 0001:0001e6a7       ??$?RV<lambda_51b6e8b1eb166f2a3faf91f424b38130>@@AAV<lambda_6250bd4b2a391816dd638c3bf72b0bcb>@@V<lambda_0b5a4a3e68152e1d9b943535f5f47bed>@@@?$__crt_seh_guarded_call@X@@QAEX$$QAV<lambda_51b6e8b1eb166f2a3faf91f424b38130>@@AAV<lambda_6250bd4b2a391816dd638c3bf72b0bcb>@@$$QAV<lambda_0b5a4a3e68152e1d9b943535f5f47bed>@@@Z 1001f6a7 f i libucrt:per_thread_data.obj
 0001:0001e708       ??$?RV<lambda_5b71d36f03204c0beab531769a5b5694>@@AAV<lambda_be2b3da3f62db62e9dad5dc70221a656>@@V<lambda_8f9ce462984622f9bf76b59e2aaaf805>@@@?$__crt_seh_guarded_call@X@@QAEX$$QAV<lambda_5b71d36f03204c0beab531769a5b5694>@@AAV<lambda_be2b3da3f62db62e9dad5dc70221a656>@@$$QAV<lambda_8f9ce462984622f9bf76b59e2aaaf805>@@@Z 1001f708 f i libucrt:per_thread_data.obj
 0001:0001e753       ??$?RV<lambda_9df27f884b057bc3edfc946cb5b7cf47>@@AAV<lambda_e69574bed617af4e071282c136b37893>@@V<lambda_cc0d902bcbbeb830f749456577db4721>@@@?$__crt_seh_guarded_call@X@@QAEX$$QAV<lambda_9df27f884b057bc3edfc946cb5b7cf47>@@AAV<lambda_e69574bed617af4e071282c136b37893>@@$$QAV<lambda_cc0d902bcbbeb830f749456577db4721>@@@Z 1001f753 f i libucrt:per_thread_data.obj
 0001:0001e79b       ??$__acrt_lock_and_call@V<lambda_6250bd4b2a391816dd638c3bf72b0bcb>@@@@YAXW4__acrt_lock_id@@$$QAV<lambda_6250bd4b2a391816dd638c3bf72b0bcb>@@@Z 1001f79b f i libucrt:per_thread_data.obj
 0001:0001e7c3       ??$__acrt_lock_and_call@V<lambda_b2ea41f6bbb362cd97d94c6828d90b61>@@@@YAXW4__acrt_lock_id@@$$QAV<lambda_b2ea41f6bbb362cd97d94c6828d90b61>@@@Z 1001f7c3 f i libucrt:per_thread_data.obj
 0001:0001e7eb       ??$__acrt_lock_and_call@V<lambda_be2b3da3f62db62e9dad5dc70221a656>@@@@YAXW4__acrt_lock_id@@$$QAV<lambda_be2b3da3f62db62e9dad5dc70221a656>@@@Z 1001f7eb f i libucrt:per_thread_data.obj
 0001:0001e813       ??$__acrt_lock_and_call@V<lambda_e69574bed617af4e071282c136b37893>@@@@YAXW4__acrt_lock_id@@$$QAV<lambda_e69574bed617af4e071282c136b37893>@@@Z 1001f813 f i libucrt:per_thread_data.obj
 0001:0001e9c9       ___acrt_freeptd            1001f9c9 f   libucrt:per_thread_data.obj
 0001:0001e9f5       ___acrt_getptd             1001f9f5 f   libucrt:per_thread_data.obj
 0001:0001ea79       ___acrt_getptd_noexit      1001fa79 f   libucrt:per_thread_data.obj
 0001:0001eafe       ___acrt_initialize_ptd     1001fafe f   libucrt:per_thread_data.obj
 0001:0001eb2a       ___acrt_uninitialize_ptd   1001fb2a f   libucrt:per_thread_data.obj
 0001:0001eb44       __query_app_type           1001fb44 f   libucrt:report_runtime_error.obj
 0001:0001ec37       __itow_s                   1001fc37 f   libucrt:xtoa.obj
 0001:0001ec6c       __set_error_mode           1001fc6c f   libucrt:set_error_mode.obj
 0001:0001ecab       _wcscat_s                  1001fcab f   libucrt:wcscat_s.obj
 0001:0001ee09       _wcsncat_s                 1001fe09 f   libucrt:wcsncat_s.obj
 0001:0001ef0f       ___acrt_show_wide_message_box 1001ff0f f   libucrt:crtmbox.obj
 0001:0001ef1a       ___acrt_initialize_timeset 1001ff1a f   libucrt:timeset.obj
 0001:0001ef51       ___daylight                1001ff51 f   libucrt:timeset.obj
 0001:0001ef57       ___dstbias                 1001ff57 f   libucrt:timeset.obj
 0001:0001ef5d       ___timezone                1001ff5d f   libucrt:timeset.obj
 0001:0001ef63       ___tzname                  1001ff63 f   libucrt:timeset.obj
 0001:0001ef69       __get_daylight             1001ff69 f   libucrt:timeset.obj
 0001:0001ef95       __get_dstbias              1001ff95 f   libucrt:timeset.obj
 0001:0001efc1       __get_timezone             1001ffc1 f   libucrt:timeset.obj
 0001:0001efed       ??$__crt_time_elapsed_leap_years@H@@YAHH@Z 1001ffed f i libucrt:gmtime.obj
 0001:0001f218       ___getgmtimebuf            10020218 f   libucrt:gmtime.obj
 0001:0001f256       __gmtime64_s               10020256 f   libucrt:gmtime.obj
 0001:0001f9a8       ___tzset                   100209a8 f   libucrt:tzset.obj
 0001:0001f9f9       __isindst                  100209f9 f   libucrt:tzset.obj
 0001:0001fa89       ??$?RV<lambda_9227be29367c048ad7fd93a717dcb1a1>@@AAV<lambda_a463b7b0560cfcaf9b17f27c6ef46564>@@V<lambda_ccea11b5727ccf69be64f5f5d9a08d9f>@@@?$__crt_seh_guarded_call@H@@QAEH$$QAV<lambda_9227be29367c048ad7fd93a717dcb1a1>@@AAV<lambda_a463b7b0560cfcaf9b17f27c6ef46564>@@$$QAV<lambda_ccea11b5727ccf69be64f5f5d9a08d9f>@@@Z 10020a89 f i libucrt:winapi_thunks.obj
 0001:0001fb0d       ??$__acrt_lock_and_call@V<lambda_a463b7b0560cfcaf9b17f27c6ef46564>@@@@YAHW4__acrt_lock_id@@$$QAV<lambda_a463b7b0560cfcaf9b17f27c6ef46564>@@@Z 10020b0d f i libucrt:winapi_thunks.obj
 0001:0001fb35       ??$__crt_fast_encode_pointer@P6GHPA_WKJ@Z@@YAP6GHPA_WKJ@ZQ6GH0KJ@Z@Z 10020b35 f i libucrt:winapi_thunks.obj
 0001:0001fb35       ??$__crt_fast_encode_pointer@P6AHXZ@@YAP6AHXZQ6AHXZ@Z 10020b35 f i libucrt:onexit.obj
 0001:0001fcb9       ___acrt_CompareStringEx@36 10020cb9 f   libucrt:winapi_thunks.obj
 0001:0001fd2d       ___acrt_EnumSystemLocalesEx@16 10020d2d f   libucrt:winapi_thunks.obj
 0001:0001fd9a       ___acrt_FlsAlloc@4         10020d9a f   libucrt:winapi_thunks.obj
 0001:0001fdf0       ___acrt_FlsFree@4          10020df0 f   libucrt:winapi_thunks.obj
 0001:0001fe46       ___acrt_FlsGetValue@4      10020e46 f   libucrt:winapi_thunks.obj
 0001:0001fe9c       ___acrt_FlsSetValue@8      10020e9c f   libucrt:winapi_thunks.obj
 0001:0001fef5       ___acrt_GetLocaleInfoEx@16 10020ef5 f   libucrt:winapi_thunks.obj
 0001:0001ff5f       ___acrt_GetSystemTimePreciseAsFileTime@4 10020f5f f   libucrt:winapi_thunks.obj
 0001:0001ffb5       ___acrt_GetUserDefaultLocaleName@8 10020fb5 f   libucrt:winapi_thunks.obj
 0001:0002001c       ___acrt_InitializeCriticalSectionEx@12 1002101c f   libucrt:winapi_thunks.obj
 0001:0002007e       ___acrt_IsValidLocaleName@4 1002107e f   libucrt:winapi_thunks.obj
 0001:000200e1       ___acrt_LCIDToLocaleName@16 100210e1 f   libucrt:winapi_thunks.obj
 0001:0002014b       ___acrt_LCMapStringEx@36   1002114b f   libucrt:winapi_thunks.obj
 0001:000201d3       ___acrt_LocaleNameToLCID@8 100211d3 f   libucrt:winapi_thunks.obj
 0001:0002022f       ___acrt_MessageBoxW@16     1002122f f   libucrt:winapi_thunks.obj
 0001:00020278       ___acrt_can_show_message_box 10021278 f   libucrt:winapi_thunks.obj
 0001:00020291       ___acrt_can_use_vista_locale_apis 10021291 f   libucrt:winapi_thunks.obj
 0001:0002029d       ___acrt_get_parent_window  1002129d f   libucrt:winapi_thunks.obj
 0001:0002031c       ___acrt_initialize_winapi_thunks 1002131c f   libucrt:winapi_thunks.obj
 0001:00020342       ___acrt_is_interactive     10021342 f   libucrt:winapi_thunks.obj
 0001:000203e8       ___acrt_is_packaged_app    100213e8 f   libucrt:winapi_thunks.obj
 0001:0002046f       ___acrt_uninitialize_winapi_thunks 1002146f f   libucrt:winapi_thunks.obj
 0001:000204a5       _strtol                    100214a5 f   libucrt:strtox.obj
 0001:000204d1       _wcstol                    100214d1 f   libucrt:strtox.obj
 0001:000204fd       __mbtowc_l                 100214fd f   libucrt:mbtowc.obj
 0001:000205f7       _mbtowc                    100215f7 f   libucrt:mbtowc.obj
 0001:00020611       __wctomb_s_l               10021611 f   libucrt:wctomb.obj
 0001:00020732       _wctomb_s                  10021732 f   libucrt:wctomb.obj
 0001:0002074f       ___acrt_update_locale_info 1002174f f   libucrt:locale_update.obj
 0001:0002077c       ___acrt_update_multibyte_info 1002177c f   libucrt:locale_update.obj
 0001:000207a9       ?__acrt_fp_classify@@YA?AW4__acrt_fp_class@@ABN@Z 100217a9 f i libucrt:cvt.obj
 0001:00020815       ?__acrt_fp_is_negative@@YA_NABN@Z 10021815 f i libucrt:cvt.obj
 0001:00021074       ___acrt_fp_format          10022074 f   libucrt:cvt.obj
 0001:000211f0       __fputwc_nolock            100221f0 f   libucrt:fputwc.obj
 0001:00021316       __fileno                   10022316 f   libucrt:fileno.obj
 0001:0002133c       __get_printf_count_output  1002233c f   libucrt:printf_count_output.obj
 0001:00021351       ___acrt_stdio_begin_temporary_buffering_nolock 10022351 f   libucrt:_sftbuf.obj
 0001:00021406       ___acrt_stdio_end_temporary_buffering_nolock 10022406 f   libucrt:_sftbuf.obj
 0001:0002143f       ??$?RV<lambda_70818de7b02deff9841e8b0962a60ed9>@@AAV<lambda_2af78c5f5901b1372d98f9ab3177dfa6>@@AAV<lambda_f51fe5fd7c79a33db34fc9310f277369>@@@?$__crt_seh_guarded_call@X@@QAEX$$QAV<lambda_70818de7b02deff9841e8b0962a60ed9>@@AAV<lambda_2af78c5f5901b1372d98f9ab3177dfa6>@@AAV<lambda_f51fe5fd7c79a33db34fc9310f277369>@@@Z 1002243f f i libucrt:wsetlocale.obj
 0001:0002147a       ??$?RV<lambda_c76fdea48760d5f9368b465f31df4405>@@AAV<lambda_e378711a6f6581bf7f0efd7cdf97f5d9>@@V<lambda_e927a58b2a85c081d733e8c6192ae2d2>@@@?$__crt_seh_guarded_call@X@@QAEX$$QAV<lambda_c76fdea48760d5f9368b465f31df4405>@@AAV<lambda_e378711a6f6581bf7f0efd7cdf97f5d9>@@$$QAV<lambda_e927a58b2a85c081d733e8c6192ae2d2>@@@Z 1002247a f i libucrt:wsetlocale.obj
 0001:000214bd       ??$__acrt_lock_and_call@V<lambda_e378711a6f6581bf7f0efd7cdf97f5d9>@@@@YAXW4__acrt_lock_id@@$$QAV<lambda_e378711a6f6581bf7f0efd7cdf97f5d9>@@@Z 100224bd f i libucrt:wsetlocale.obj
 0001:0002163f       ___acrt_copy_locale_name   1002263f f   libucrt:wsetlocale.obj
 0001:000216a5       ___acrt_set_locale_changed 100226a5 f   libucrt:wsetlocale.obj
 0001:000216b0       ___acrt_uninitialize_locale 100226b0 f   libucrt:wsetlocale.obj
 0001:00021702       ___lc_lctowcs              10022702 f   libucrt:wsetlocale.obj
 0001:00021772       ___lc_wcstolc              10022772 f   libucrt:wsetlocale.obj
 0001:000218d0       __expandlocale             100228d0 f   libucrt:wsetlocale.obj
 0001:00021c47       __wcscats                  10022c47 f   libucrt:wsetlocale.obj
 0001:00021c88       __wsetlocale               10022c88 f   libucrt:wsetlocale.obj
 0001:000226be       ___acrt_initialize_lowio   100236be f   libucrt:ioinit.obj
 0001:00022714       ___acrt_uninitialize_lowio 10023714 f   libucrt:ioinit.obj
 0001:00022740       __dsign                    10023740 f   libucrt:nan.obj
 0001:00022750       __errcode                  10023750 f   libucrt:fpexcept.obj
 0001:00022784       __except1                  10023784 f   libucrt:fpexcept.obj
 0001:00022852       __handle_exc               10023852 f   libucrt:fpexcept.obj
 0001:00022a32       __raise_exc                10023a32 f   libucrt:fpexcept.obj
 0001:00022a55       __raise_exc_ex             10023a55 f   libucrt:fpexcept.obj
 0001:00022d46       __set_errno_from_matherr   10023d46 f   libucrt:fpexcept.obj
 0001:00022d75       __umatherr                 10023d75 f   libucrt:fpexcept.obj
 0001:00022e17       __decomp                   10023e17 f   libucrt:util.obj
 0001:00022eeb       __set_exp                  10023eeb f   libucrt:util.obj
 0001:00022f1a       __sptype                   10023f1a f   libucrt:util.obj
 0001:00022f78       __clrfp                    10023f78 f   libucrt:fpctrl.obj
 0001:00022f8b       __ctrlfp                   10023f8b f   libucrt:fpctrl.obj
 0001:00022fb7       __set_statfp               10023fb7 f   libucrt:fpctrl.obj
 0001:00023012       __statfp                   10024012 f   libucrt:fpctrl.obj
 0001:00023024       __fcloseall                10024024 f   libucrt:closeall.obj
 0001:000230c4       ___acrt_stdio_free_buffer_nolock 100240c4 f   libucrt:_freebuf.obj
 0001:00023102       ??$?RV<lambda_123407a5e2ac06da108355a851863b7a>@@AAV<lambda_2fe9b910cf3cbf4a0ab98a02ba45b3ec>@@V<lambda_ae55bdf541ad94d75914d381c370e64d>@@@?$__crt_seh_guarded_call@H@@QAEH$$QAV<lambda_123407a5e2ac06da108355a851863b7a>@@AAV<lambda_2fe9b910cf3cbf4a0ab98a02ba45b3ec>@@$$QAV<lambda_ae55bdf541ad94d75914d381c370e64d>@@@Z 10024102 f i libucrt:close.obj
 0001:00023184       ??$__acrt_lowio_lock_fh_and_call@V<lambda_2fe9b910cf3cbf4a0ab98a02ba45b3ec>@@@@YAHH$$QAV<lambda_2fe9b910cf3cbf4a0ab98a02ba45b3ec>@@@Z 10024184 f i libucrt:close.obj
 0001:000231ac       __close                    100241ac f   libucrt:close.obj
 0001:0002322b       __close_nolock             1002422b f   libucrt:close.obj
 0001:000232c7       ?__acrt_stdio_free_stream@@YAXV__crt_stdio_stream@@@Z 100242c7 f   libucrt:stream.obj
 0001:00023302       ??$?RV<lambda_61cee617f5178ae960314fd4d05640a0>@@AAV<lambda_6978c1fb23f02e42e1d9e99668cc68aa>@@V<lambda_9cd88cf8ad10232537feb2133f08c833>@@@?$__crt_seh_guarded_call@H@@QAEH$$QAV<lambda_61cee617f5178ae960314fd4d05640a0>@@AAV<lambda_6978c1fb23f02e42e1d9e99668cc68aa>@@$$QAV<lambda_9cd88cf8ad10232537feb2133f08c833>@@@Z 10024302 f i libucrt:commit.obj
 0001:0002339a       ??$__acrt_lowio_lock_fh_and_call@V<lambda_6978c1fb23f02e42e1d9e99668cc68aa>@@@@YAHH$$QAV<lambda_6978c1fb23f02e42e1d9e99668cc68aa>@@@Z 1002439a f i libucrt:commit.obj
 0001:000233c2       __commit                   100243c2 f   libucrt:commit.obj
 0001:000239c1       __write                    100249c1 f   libucrt:write.obj
 0001:00023aac       __write_nolock             10024aac f   libucrt:write.obj
 0001:00023e39       ___acrt_stdio_refill_and_read_narrow_nolock 10024e39 f   libucrt:_filbuf.obj
 0001:00024374       __ftelli64                 10025374 f   libucrt:ftell.obj
 0001:0002437f       __ftelli64_nolock          1002537f f   libucrt:ftell.obj
 0001:00024750       ___acrt_stdio_flush_and_write_narrow_nolock 10025750 f   libucrt:_flsbuf.obj
 0001:0002475b       ___acrt_stdio_flush_and_write_wide_nolock 1002575b f   libucrt:_flsbuf.obj
 0001:000248e9       __lseeki64                 100258e9 f   libucrt:lseek.obj
 0001:00024904       __lseeki64_nolock          10025904 f   libucrt:lseek.obj
 0001:0002491f       ___acrt_stdio_allocate_buffer_nolock 1002591f f   libucrt:_getbuf.obj
 0001:00024af5       __mbstowcs_s_l             10025af5 f   libucrt:mbstowcs.obj
 0001:00024bd8       _mbstowcs_s                10025bd8 f   libucrt:mbstowcs.obj
 0001:00024e79       __wcstombs_s_l             10025e79 f   libucrt:wcstombs.obj
 0001:00024f46       __query_new_mode           10025f46 f   libucrt:new_mode.obj
 0001:00024f4c       ___acrt_initialize_heap    10025f4c f   libucrt:heap_handle.obj
 0001:00024f5d       ___acrt_uninitialize_heap  10025f5d f   libucrt:heap_handle.obj
 0001:00024f67       __isctype_l                10025f67 f   libucrt:isctype.obj
 0001:00025134       ___acrt_GetLocaleInfoA     10026134 f   libucrt:getlocaleinfoa.obj
 0001:000252e6       ___acrt_GetStringTypeA     100262e6 f   libucrt:getstringtypea.obj
 0001:00025620       ___acrt_LCMapStringA       10026620 f   libucrt:lcmapstringa.obj
 0001:0002566b       __fpclass                  1002666b f   libucrt:ieeemisc.obj
 0001:0002570f       __wcsicmp                  1002670f f   libucrt:wcsicmp.obj
 0001:000257a4       __wcsicmp_l                100267a4 f   libucrt:wcsicmp.obj
 0001:00025884       __isleadbyte_l             10026884 f i libucrt:_wctype.obj
 0001:000258c0       __trandisp1                100268c0 f   libucrt:87disp.obj
 0001:00025927       __trandisp2                10026927 f   libucrt:87disp.obj
 0001:000259b3       __rttospopde               100269b3     libucrt:87disp.obj
 0001:000259b8       __rttospop                 100269b8     libucrt:87disp.obj
 0001:000259ba       __rtnospop                 100269ba     libucrt:87disp.obj
 0001:000259bc       __rttosnpop                100269bc     libucrt:87disp.obj
 0001:000259bd       __rtnospopde               100269bd     libucrt:87disp.obj
 0001:000259c4       __rtzeropop                100269c4     libucrt:87disp.obj
 0001:000259c6       __rtzeronpop               100269c6     libucrt:87disp.obj
 0001:000259cb       __rtzerospop               100269cb     libucrt:87disp.obj
 0001:000259d8       __rtonepop                 100269d8     libucrt:87disp.obj
 0001:000259da       __rtonenpop                100269da     libucrt:87disp.obj
 0001:000259df       __tosnan1                  100269df     libucrt:87disp.obj
 0001:00025a0a       __nosnan2                  10026a0a     libucrt:87disp.obj
 0001:00025a0c       __tosnan2                  10026a0c     libucrt:87disp.obj
 0001:00025a34       __nan2                     10026a34     libucrt:87disp.obj
 0001:00025a73       __rtindfpop                10026a73     libucrt:87disp.obj
 0001:00025a75       __rtindfnpop               10026a75     libucrt:87disp.obj
 0001:00025a86       __rttosnpopde              10026a86     libucrt:87disp.obj
 0001:00025a90       __rtatan2inf               10026a90     libucrt:87disp.obj
 0001:00025aad       __rtchsifneg               10026aad     libucrt:87disp.obj
 0001:00025ac0       __startTwoArgErrorHandling 10026ac0 f   libucrt:genexcep.obj
 0001:00025ad7       __startOneArgErrorHandling 10026ad7 f   libucrt:genexcep.obj
 0001:00025b20       __twoToTOS                 10026b20 f   libucrt:common.obj
 0001:00025b35       __load_CW                  10026b35 f   libucrt:common.obj
 0001:00025b4c       __convertTOStoQNaN         10026b4c f   libucrt:common.obj
 0001:00025b65       __fload_withFB             10026b65 f   libucrt:common.obj
 0001:00025ba8       __checkTOS_withFB          10026ba8 f   libucrt:common.obj
 0001:00025bbe       __fast_exit                10026bbe f   libucrt:common.obj
 0001:00025bcb       __math_exit                10026bcb f   libucrt:common.obj
 0001:00025bf5       __check_overflow_exit      10026bf5 f   libucrt:common.obj
 0001:00025c09       __check_range_exit         10026c09 f   libucrt:common.obj
 0001:00025cac       ??$?RV<lambda_978dc153c237d78434369da87b74ff60>@@AAV<lambda_ad1ced32f4ac17aa236e5ef05d6b3b7c>@@V<lambda_4a8533e2866a575feecb8298ce776b0d>@@@?$__crt_seh_guarded_call@X@@QAEX$$QAV<lambda_978dc153c237d78434369da87b74ff60>@@AAV<lambda_ad1ced32f4ac17aa236e5ef05d6b3b7c>@@$$QAV<lambda_4a8533e2866a575feecb8298ce776b0d>@@@Z 10026cac f i libucrt:mbctype.obj
 0001:00025cef       ??$__acrt_lock_and_call@V<lambda_ad1ced32f4ac17aa236e5ef05d6b3b7c>@@@@YAXW4__acrt_lock_id@@$$QAV<lambda_ad1ced32f4ac17aa236e5ef05d6b3b7c>@@@Z 10026cef f i libucrt:mbctype.obj
 0001:00026186       ___acrt_initialize_multibyte 10027186 f   libucrt:mbctype.obj
 0001:000261a4       ___acrt_update_thread_multibyte_data 100271a4 f   libucrt:mbctype.obj
 0001:00026246       __setmbcp_nolock           10027246 f   libucrt:mbctype.obj
 0001:0002646e       ___dcrt_get_narrow_environment_from_os 1002746e f   libucrt:get_environment_from_os.obj
 0001:00026831       ___dcrt_set_variable_in_narrow_environment_nolock 10027831 f   libucrt:setenv.obj
 0001:0002683c       __recalloc                 1002783c f   libucrt:recalloc.obj
 0001:00026847       __recalloc_base            10027847 f   libucrt:recalloc.obj
 0001:000268b4       ___acrt_initialize_command_line 100278b4 f   libucrt:argv_data.obj
 0001:000268cd       ___acrt_execute_initializers 100278cd f   libucrt:shared_initialization.obj
 0001:00026950       ___acrt_execute_uninitializers 10027950 f   libucrt:shared_initialization.obj
 0001:0002699d       ___acrt_has_user_matherr   1002799d f   libucrt:matherr.obj
 0001:000269b6       ___acrt_initialize_user_matherr 100279b6 f   libucrt:matherr.obj
 0001:000269ca       ___acrt_invoke_user_matherr 100279ca f   libucrt:matherr.obj
 0001:00026a13       _iswctype                  10027a13 f   libucrt:iswctype.obj
 0001:00026a72       ___acrt_add_locale_ref     10027a72 f   libucrt:locale_refcounting.obj
 0001:00026aef       ___acrt_free_locale        10027aef f   libucrt:locale_refcounting.obj
 0001:00026c39       ___acrt_locale_add_lc_time_reference 10027c39 f   libucrt:locale_refcounting.obj
 0001:00026c62       ___acrt_locale_free_lc_time_if_unreferenced 10027c62 f   libucrt:locale_refcounting.obj
 0001:00026c92       ___acrt_locale_release_lc_time_reference 10027c92 f   libucrt:locale_refcounting.obj
 0001:00026cbb       ___acrt_release_locale_ref 10027cbb f   libucrt:locale_refcounting.obj
 0001:00026d3c       ___acrt_update_thread_locale_data 10027d3c f   libucrt:locale_refcounting.obj
 0001:00026db3       __updatetlocinfoEx_nolock  10027db3 f   libucrt:locale_refcounting.obj
 0001:00026ed0       _wcsncpy_s                 10027ed0 f   libucrt:wcsncpy_s.obj
 0001:00027048       _getenv_s                  10028048 f   libucrt:getenv.obj
 0001:00027104       _strncpy_s                 10028104 f   libucrt:strncpy_s.obj
 0001:000271cb       ___acrt_DownlevelLCIDToLocaleName 100281cb f   libucrt:lcidtoname_downlevel.obj
 0001:00027275       ___acrt_DownlevelLocaleNameToLCID 10028275 f   libucrt:lcidtoname_downlevel.obj
 0001:000272a1       ___acrt_fp_strflt_to_string 100282a1 f   libucrt:_fptostr.obj
 0001:0002735d       ??0scoped_fp_state_reset@?A0x48fbfdd4@@QAE@XZ 1002835d f i libucrt:cfout.obj
 0001:00027390       ?divide@__crt_strtox@@YA_KAAUbig_integer@1@ABU21@@Z 10028390 f i libucrt:cfout.obj
 0001:0002783e       ___acrt_fltout             1002883e f   libucrt:cfout.obj
 0001:00028bda       __isatty                   10029bda f   libucrt:isatty.obj
 0001:00028c30       ___acrt_locale_free_monetary 10029c30 f   libucrt:initmon.obj
 0001:00028d2e       ___acrt_locale_initialize_monetary 10029d2e f   libucrt:initmon.obj
 0001:000290ea       ___acrt_locale_free_numeric 1002a0ea f   libucrt:initnum.obj
 0001:00029153       ___acrt_locale_initialize_numeric 1002a153 f   libucrt:initnum.obj
 0001:00029628       ___acrt_locale_free_time   1002a628 f   libucrt:inittime.obj
 0001:0002970c       ___acrt_locale_initialize_time 1002a70c f   libucrt:inittime.obj
 0001:0002978b       _wcscspn                   1002a78b f   libucrt:wcscspn.obj
 0001:000297db       _wcsncmp                   1002a7db f   libucrt:wcsncmp.obj
 0001:00029815       _wcspbrk                   1002a815 f   libucrt:wcspbrk.obj
 0001:00029f58       ___acrt_get_qualified_locale 1002af58 f   libucrt:get_qualified_locale.obj
 0001:0002a890       ___acrt_get_qualified_locale_downlevel 1002b890 f   libucrt:getqloc_downlevel.obj
 0001:0002aa97       ___acrt_lowio_create_handle_array 1002ba97 f   libucrt:osfinfo.obj
 0001:0002ab11       ___acrt_lowio_destroy_handle_array 1002bb11 f   libucrt:osfinfo.obj
 0001:0002ab46       ___acrt_lowio_ensure_fh_exists 1002bb46 f   libucrt:osfinfo.obj
 0001:0002abde       ___acrt_lowio_lock_fh      1002bbde f   libucrt:osfinfo.obj
 0001:0002ac01       ___acrt_lowio_unlock_fh    1002bc01 f   libucrt:osfinfo.obj
 0001:0002ac24       __free_osfhnd              1002bc24 f   libucrt:osfinfo.obj
 0001:0002acb5       __get_osfhandle            1002bcb5 f   libucrt:osfinfo.obj
 0001:0002ad1f       __putwch_nolock            1002bd1f f   libucrt:putwch.obj
 0001:0002b24c       __read                     1002c24c f   libucrt:read.obj
 0001:0002b35f       __read_nolock              1002c35f f   libucrt:read.obj
 0001:0002b714       __towlower_l               1002c714 f   libucrt:towlower.obj
 0001:0002b7dd       __87except                 1002c7dd f   libucrt:87except.obj
 0001:0002b8f7       __strnicoll                1002c8f7 f   libucrt:strnicol.obj
 0001:0002b920       __strnicoll_l              1002c920 f   libucrt:strnicol.obj
 0001:0002b9ea       __msize                    1002c9ea f   libucrt:msize.obj
 0001:0002ba1d       _fegetenv                  1002ca1d f   libucrt:fegetenv.obj
 0001:0002ba3a       _fesetenv                  1002ca3a f   libucrt:fesetenv.obj
 0001:0002ba83       _feholdexcept              1002ca83 f   libucrt:feholdexcept.obj
 0001:0002bae0       _log10                     1002cae0 f   libucrt:log10.obj
 0001:0002bb20       __CIlog10                  1002cb20 f   libucrt:log10.obj
 0001:0002bb5b       __CIlog10_default          1002cb5b f   libucrt:log10.obj
 0001:0002bb6f       __log10_default            1002cb6f     libucrt:log10.obj
 0001:0002bc30       _ceil                      1002cc30 f   libucrt:ceil_pentium4.obj
 0001:0002bc70       __ceil_pentium4            1002cc70 f   libucrt:ceil_pentium4.obj
 0001:0002bd4d       __wcsnicmp                 1002cd4d f   libucrt:wcsnicmp.obj
 0001:0002be05       __wcsnicmp_l               1002ce05 f   libucrt:wcsnicmp.obj
 0001:0002c1a9       __getfpcontrolword         1002d1a9 f   libucrt:_fenvutils.obj
 0001:0002c1ec       __getfpstatusword          1002d1ec f   libucrt:_fenvutils.obj
 0001:0002c294       __setfpcontrolword         1002d294 f   libucrt:_fenvutils.obj
 0001:0002c314       __setfpstatusword          1002d314 f   libucrt:_fenvutils.obj
 0001:0002c394       ___dcrt_lowio_initialize_console_output 1002d394 f   libucrt:initcon.obj
 0001:0002c3b3       ___dcrt_terminate_console_output 1002d3b3 f   libucrt:initcon.obj
 0001:0002c3ca       ___acrt_LCMapStringW       1002d3ca f   libucrt:lcmapstringw.obj
 0001:0002c408       __strnicmp                 1002d408 f   libucrt:strnicmp.obj
 0001:0002c474       __strnicmp_l               1002d474 f   libucrt:strnicmp.obj
 0001:0002c7d3       ___acrt_CompareStringA     1002d7d3 f   libucrt:comparestringa.obj
 0001:0002c81b       __clearfp                  1002d81b f   libucrt:ieee87.obj
 0001:0002c8f9       ___acrt_initialize_sse2    1002d8f9 f   libucrt:mathfcns.obj
 0001:0002c910       __CIlog10_pentium4         1002d910 f   libucrt:log10_pentium4.obj
 0001:0002c928       __log10_pentium4           1002d928     libucrt:log10_pentium4.obj
 0001:0002cbb1       __fFEXP                    1002dbb1     libucrt:87tran.obj
 0001:0002cc08       __rtinfpopse               1002dc08     libucrt:87tran.obj
 0001:0002cc0a       __rtinfnpopse              1002dc0a     libucrt:87tran.obj
 0001:0002cc1a       __fFLN                     1002dc1a     libucrt:87tran.obj
 0001:0002cccf       __rtinfpop                 1002dccf     libucrt:87tran.obj
 0001:0002ccd1       __rtinfnpop                1002dcd1     libucrt:87tran.obj
 0001:0002ccee       __ffexpm1                  1002dcee     libucrt:87tran.obj
 0001:0002cd97       ___libm_error_support      1002dd97 f   libucrt:libm_error.obj
 0001:0002cfaf       __ceil_default             1002dfaf f   libucrt:ceil.obj
 0001:0002d070       ___ascii_strnicmp          1002e070 f   libucrt:_strnicm.obj
 0001:0002d0d1       __d_inttype                1002e0d1 f   libucrt:powhlp.obj
 0001:0002d13b       __powhlp                   1002e13b f   libucrt:powhlp.obj
 0001:0002d266       __frnd                     1002e266 f   libucrt:frnd.obj
 0001:0002d27c       _IsProcessorFeaturePresent@4 1002e27c f   kernel32:KERNEL32.dll
 0001:0002d282       _RtlUnwind@16              1002e282 f   kernel32:KERNEL32.dll
 0001:0002d288       _SystemFunction036@8       1002e288 f   advapi32:ADVAPI32.dll
 0001:0002d28e       ?DloadAcquireSectionWriteAccess@@YGXXZ 1002e28e f i DelayImp:delayhlp.obj
 0001:0002d2c1       ?DloadGetSRWLockFunctionPointers@@YGEXZ 1002e2c1 f i DelayImp:delayhlp.obj
 0001:0002d33c       ?DloadLock@@YGXXZ          1002e33c f i DelayImp:delayhlp.obj
 0001:0002d399       ?DloadMakePermanentImageCommit@@YGXPAXK@Z 1002e399 f i DelayImp:delayhlp.obj
 0001:0002d40b       ?DloadObtainSection@@YGPAXPAK0@Z 1002e40b f i DelayImp:delayhlp.obj
 0001:0002d48e       ?DloadProtectSection@@YGXKPAK@Z 1002e48e f i DelayImp:delayhlp.obj
 0001:0002d4fe       ?DloadReleaseSectionWriteAccess@@YGXXZ 1002e4fe f i DelayImp:delayhlp.obj
 0001:0002d536       ?DloadUnlock@@YGXXZ        1002e536 f i DelayImp:delayhlp.obj
 0001:0002d580       ___delayLoadHelper2@8      1002e580 f   DelayImp:delayhlp.obj
 0001:0002d810       __FindPESection            1002e810 f   LIBCMT:pesect.obj
 0001:0002d860       __IsNonwritableInCurrentImage 1002e860 f   LIBCMT:pesect.obj
 0001:0002d920       __ValidateImageBase        1002e920 f   LIBCMT:pesect.obj
 0001:0002d960       __aulldvrm                 1002e960 f   LIBCMT:ulldvrm.obj
 0001:0002da00       __alldiv                   1002ea00 f   LIBCMT:lldiv.obj
 0001:0002dab0       __allrem                   1002eab0 f   LIBCMT:llrem.obj
 0001:0002db70       __alldvrm                  1002eb70 f   LIBCMT:lldvrm.obj
 0001:0002dc50       __SEH_prolog4_GS           1002ec50 f   LIBCMT:_sehprolg4gs_.obj
 0001:0002dc99       __SEH_epilog4_GS           1002ec99 f   LIBCMT:_sehprolg4gs_.obj
 0001:0002dcb0       __aullshr                  1002ecb0 f   LIBCMT:ullshr.obj
 0001:0002dcd0       __allshl                   1002ecd0 f   LIBCMT:llshl.obj
 0001:0002dcf0       __ftol2_sse                1002ecf0 f   LIBCMT:_ftol2_.obj
 0001:0002dcf9       __ftol2_pentium4           1002ecf9 f   LIBCMT:_ftol2_.obj
 0001:0002dd0c       __ftol2_sse_excpt          1002ed0c f   LIBCMT:_ftol2_.obj
 0001:0002dd30       __ftol2                    1002ed30 f   LIBCMT:_ftol2_.obj
 0001:0002ddb0       _strrchr                   1002edb0 f   libvcruntime:strrchr.obj
 0001:0002def0       _strchr                    1002eef0 f   libvcruntime:strchr.obj
 0001:0002df5e       ___from_strstr_to_strchr   1002ef5e     libvcruntime:strchr.obj
 0001:0002e01b       _wcschr                    1002f01b f   libvcruntime:wcschr.obj
 0001:0002e0d0       __ftoui3                   1002f0d0 f   LIBCMT:_ftol3_.obj
 0001:0002e0df       __ftoul3                   1002f0df f   LIBCMT:_ftol3_.obj
 0001:0002e0ee       __ftol3                    1002f0ee f   LIBCMT:_ftol3_.obj
 0001:0002e0fb       __ftol3_NaN                1002f0fb f   LIBCMT:_ftol3_.obj
 0001:0002e113       __ftol3_work               1002f113 f   LIBCMT:_ftol3_.obj
 0001:0002e199       __ftol3_common             1002f199 f   LIBCMT:_ftol3_.obj
 0001:0002e25b       __ftol3_arg_error          1002f25b f   LIBCMT:_ftol3_.obj
 0001:0002e26d       __ftol3_except             1002f26d f   LIBCMT:_ftol3_.obj
 0001:0002e2b1       __dtoui3                   1002f2b1 f   LIBCMT:_ftol3_.obj
 0001:0002e2c0       __dtoul3                   1002f2c0 f   LIBCMT:_ftol3_.obj
 0001:0002e2cf       __dtol3                    1002f2cf f   LIBCMT:_ftol3_.obj
 0001:0002e2dc       __dtol3_NaN                1002f2dc f   LIBCMT:_ftol3_.obj
 0001:0002e2f9       __dtol3_work               1002f2f9 f   LIBCMT:_ftol3_.obj
 0001:0002e3e0       __ultod3                   1002f3e0 f   LIBCMT:_ftol3_.obj
 0001:0002e420       __ltod3                    1002f420 f   LIBCMT:_ftol3_.obj
 0001:0002e850       ??__F_Static@?1???$_Immortalize@V_Iostream_error_category@std@@@std@@YAAAV_Iostream_error_category@0@XZ@YAXXZ 1002f850 f i DataHelper.obj
 0002:00000000       __imp__SystemFunction036@8 10030000     advapi32:ADVAPI32.dll
 0002:00000004       \177ADVAPI32_NULL_THUNK_DATA 10030004     advapi32:ADVAPI32.dll
 0002:00000008       __imp__VirtualProtect@16   10030008     kernel32:KERNEL32.dll
 0002:0000000c       __imp__GetSystemInfo@4     1003000c     kernel32:KERNEL32.dll
 0002:00000010       __imp__VirtualQuery@12     10030010     kernel32:KERNEL32.dll
 0002:00000014       __imp__GetModuleHandleA@4  10030014     kernel32:KERNEL32.dll
 0002:00000018       __imp__CreateFileW@28      10030018     kernel32:KERNEL32.dll
 0002:0000001c       __imp__HeapSize@12         1003001c     kernel32:KERNEL32.dll
 0002:00000020       __imp__ReadConsoleW@20     10030020     kernel32:KERNEL32.dll
 0002:00000024       __imp__SetStdHandle@8      10030024     kernel32:KERNEL32.dll
 0002:00000028       __imp__GetCommandLineW@0   10030028     kernel32:KERNEL32.dll
 0002:0000002c       __imp__GetCommandLineA@0   1003002c     kernel32:KERNEL32.dll
 0002:00000030       __imp__SetEnvironmentVariableA@8 10030030     kernel32:KERNEL32.dll
 0002:00000034       __imp__FreeEnvironmentStringsW@4 10030034     kernel32:KERNEL32.dll
 0002:00000038       __imp__GetEnvironmentStringsW@0 10030038     kernel32:KERNEL32.dll
 0002:0000003c       __imp__GetOEMCP@0          1003003c     kernel32:KERNEL32.dll
 0002:00000040       __imp__IsValidCodePage@4   10030040     kernel32:KERNEL32.dll
 0002:00000044       __imp__GetProcessHeap@0    10030044     kernel32:KERNEL32.dll
 0002:00000048       __imp__SetFilePointerEx@20 10030048     kernel32:KERNEL32.dll
 0002:0000004c       __imp__ReadFile@20         1003004c     kernel32:KERNEL32.dll
 0002:00000050       __imp__GetConsoleMode@8    10030050     kernel32:KERNEL32.dll
 0002:00000054       __imp__GetConsoleCP@0      10030054     kernel32:KERNEL32.dll
 0002:00000058       __imp__FlushFileBuffers@4  10030058     kernel32:KERNEL32.dll
 0002:0000005c       __imp__GetACP@0            1003005c     kernel32:KERNEL32.dll
 0002:00000060       __imp__EnumSystemLocalesW@8 10030060     kernel32:KERNEL32.dll
 0002:00000064       __imp__GetUserDefaultLCID@0 10030064     kernel32:KERNEL32.dll
 0002:00000068       __imp__IsValidLocale@8     10030068     kernel32:KERNEL32.dll
 0002:0000006c       __imp__GetTimeZoneInformation@4 1003006c     kernel32:KERNEL32.dll
 0002:00000070       __imp__CreateThread@24     10030070     kernel32:KERNEL32.dll
 0002:00000074       __imp__OutputDebugStringW@4 10030074     kernel32:KERNEL32.dll
 0002:00000078       __imp__WriteFile@20        10030078     kernel32:KERNEL32.dll
 0002:0000007c       __imp__ExitProcess@4       1003007c     kernel32:KERNEL32.dll
 0002:00000080       __imp__HeapFree@12         10030080     kernel32:KERNEL32.dll
 0002:00000084       __imp__HeapReAlloc@16      10030084     kernel32:KERNEL32.dll
 0002:00000088       __imp__HeapAlloc@12        10030088     kernel32:KERNEL32.dll
 0002:0000008c       __imp__WriteConsoleW@20    1003008c     kernel32:KERNEL32.dll
 0002:00000090       __imp__GetModuleHandleExW@12 10030090     kernel32:KERNEL32.dll
 0002:00000094       __imp__GetFileType@4       10030094     kernel32:KERNEL32.dll
 0002:00000098       __imp__GetStdHandle@4      10030098     kernel32:KERNEL32.dll
 0002:0000009c       __imp__InterlockedFlushSList@4 1003009c     kernel32:KERNEL32.dll
 0002:000000a0       __imp__GetModuleFileNameW@12 100300a0     kernel32:KERNEL32.dll
 0002:000000a4       __imp__LoadLibraryExW@12   100300a4     kernel32:KERNEL32.dll
 0002:000000a8       __imp__FreeLibrary@4       100300a8     kernel32:KERNEL32.dll
 0002:000000ac       __imp__GetLastError@0      100300ac     kernel32:KERNEL32.dll
 0002:000000b0       __imp__RtlUnwind@16        100300b0     kernel32:KERNEL32.dll
 0002:000000b4       __imp__RaiseException@16   100300b4     kernel32:KERNEL32.dll
 0002:000000b8       __imp__InitializeSListHead@4 100300b8     kernel32:KERNEL32.dll
 0002:000000bc       __imp__GetCurrentThreadId@0 100300bc     kernel32:KERNEL32.dll
 0002:000000c0       __imp__GetCurrentProcessId@0 100300c0     kernel32:KERNEL32.dll
 0002:000000c4       __imp__QueryPerformanceCounter@4 100300c4     kernel32:KERNEL32.dll
 0002:000000c8       __imp__GetStartupInfoW@4   100300c8     kernel32:KERNEL32.dll
 0002:000000cc       __imp__IsDebuggerPresent@0 100300cc     kernel32:KERNEL32.dll
 0002:000000d0       __imp__IsProcessorFeaturePresent@4 100300d0     kernel32:KERNEL32.dll
 0002:000000d4       __imp__TerminateProcess@8  100300d4     kernel32:KERNEL32.dll
 0002:000000d8       __imp__GetCurrentProcess@0 100300d8     kernel32:KERNEL32.dll
 0002:000000dc       __imp__SetUnhandledExceptionFilter@4 100300dc     kernel32:KERNEL32.dll
 0002:000000e0       __imp__UnhandledExceptionFilter@4 100300e0     kernel32:KERNEL32.dll
 0002:000000e4       __imp__WaitForSingleObjectEx@12 100300e4     kernel32:KERNEL32.dll
 0002:000000e8       __imp__ResetEvent@4        100300e8     kernel32:KERNEL32.dll
 0002:000000ec       __imp__SetEvent@4          100300ec     kernel32:KERNEL32.dll
 0002:000000f0       __imp__CloseHandle@4       100300f0     kernel32:KERNEL32.dll
 0002:000000f4       __imp__GetCPInfo@8         100300f4     kernel32:KERNEL32.dll
 0002:000000f8       __imp__GetStringTypeW@16   100300f8     kernel32:KERNEL32.dll
 0002:000000fc       __imp__GetLocaleInfoW@16   100300fc     kernel32:KERNEL32.dll
 0002:00000100       __imp__LCMapStringW@24     10030100     kernel32:KERNEL32.dll
 0002:00000104       __imp__CompareStringW@24   10030104     kernel32:KERNEL32.dll
 0002:00000108       __imp__GetProcAddress@8    10030108     kernel32:KERNEL32.dll
 0002:0000010c       __imp__GetModuleHandleW@4  1003010c     kernel32:KERNEL32.dll
 0002:00000110       __imp__GetSystemTimeAsFileTime@4 10030110     kernel32:KERNEL32.dll
 0002:00000114       __imp__TlsFree@4           10030114     kernel32:KERNEL32.dll
 0002:00000118       __imp__TlsSetValue@8       10030118     kernel32:KERNEL32.dll
 0002:0000011c       __imp__TlsGetValue@4       1003011c     kernel32:KERNEL32.dll
 0002:00000120       __imp__TlsAlloc@0          10030120     kernel32:KERNEL32.dll
 0002:00000124       __imp__CreateEventW@16     10030124     kernel32:KERNEL32.dll
 0002:00000128       __imp__InitializeCriticalSectionAndSpinCount@8 10030128     kernel32:KERNEL32.dll
 0002:0000012c       __imp__SetLastError@4      1003012c     kernel32:KERNEL32.dll
 0002:00000130       __imp__MultiByteToWideChar@24 10030130     kernel32:KERNEL32.dll
 0002:00000134       __imp__DecodePointer@4     10030134     kernel32:KERNEL32.dll
 0002:00000138       __imp__EncodePointer@4     10030138     kernel32:KERNEL32.dll
 0002:0000013c       __imp__DeleteCriticalSection@4 1003013c     kernel32:KERNEL32.dll
 0002:00000140       __imp__LeaveCriticalSection@4 10030140     kernel32:KERNEL32.dll
 0002:00000144       __imp__EnterCriticalSection@4 10030144     kernel32:KERNEL32.dll
 0002:00000148       __imp__WideCharToMultiByte@32 10030148     kernel32:KERNEL32.dll
 0002:0000014c       __imp__LoadLibraryExA@12   1003014c     kernel32:KERNEL32.dll
 0002:00000150       \177KERNEL32_NULL_THUNK_DATA 10030150     kernel32:KERNEL32.dll
 0002:00000154       __imp_?SetFileType@LNReplicationOptions@@QAEKW4LNREPLICATIONFILETYPE@@@Z 10030154     notescpp:lcppn.dll
 0002:00000158       __imp_?SetFileList@LNReplicationOptions@@QAEKABVLNText@@@Z 10030158     notescpp:lcppn.dll
 0002:0000015c       __imp_?SetDirection@LNReplicationOptions@@QAEKW4LNREPLICATIONDIRECTION@@@Z 1003015c     notescpp:lcppn.dll
 0002:00000160       __imp_?SetCloseSession@LNReplicationOptions@@QAEXH@Z 10030160     notescpp:lcppn.dll
 0002:00000164       __imp_??1LNReplicationOptions@@UAE@XZ 10030164     notescpp:lcppn.dll
 0002:00000168       __imp_??0LNReplicationOptions@@QAE@XZ 10030168     notescpp:lcppn.dll
 0002:0000016c       __imp_?Insert@LNText@@QAEKKABVLNString@@@Z 1003016c     notescpp:lcppn.dll
 0002:00000170       __imp_?CreateDocument@LNDatabase@@QAEKPAVLNDocument@@@Z 10030170     notescpp:lcppn.dll
 0002:00000174       __imp_?HasItem@LNNote@@QBEHABVLNString@@@Z 10030174     notescpp:lcppn.dll
 0002:00000178       __imp_?GetItem@LNNote@@QBEKABVLNString@@PAVLNItem@@@Z 10030178     notescpp:lcppn.dll
 0002:0000017c       __imp_?CreateItem@LNNote@@QBEKABVLNString@@PAVLNItem@@GW4LNITEMOPTION@@@Z 1003017c     notescpp:lcppn.dll
 0002:00000180       __imp_?SetTime@LNDatetime@@QAEKKKKK@Z 10030180     notescpp:lcppn.dll
 0002:00000184       __imp_?SetDate@LNDatetime@@QAEKKKK@Z 10030184     notescpp:lcppn.dll
 0002:00000188       __imp_??0LNDatetime@@QAE@XZ 10030188     notescpp:lcppn.dll
 0002:0000018c       __imp_?GetBuf@LNString@@QBEPADXZ 1003018c     notescpp:lcppn.dll
 0002:00000190       __imp_?SetValue@LNDatetimes@@QAEKABVLNDatetime@@@Z 10030190     notescpp:lcppn.dll
 0002:00000194       __imp_?DeleteAll@LNDatetimes@@QAEKXZ 10030194     notescpp:lcppn.dll
 0002:00000198       __imp_?SetValue@LNNumbers@@QAEKABN@Z 10030198     notescpp:lcppn.dll
 0002:0000019c       __imp_?SetValue@LNText@@QAEKABVLNString@@H@Z 1003019c     notescpp:lcppn.dll
 0002:000001a0       __imp_?DeleteAll@LNText@@QAEKXZ 100301a0     notescpp:lcppn.dll
 0002:000001a4       __imp_?LNStringTranslate@@YAKPBXW4LNCHARSET@@PAVLNString@@PAK@Z 100301a4     notescpp:lcppn.dll
 0002:000001a8       __imp_?GetInternalName@LNVFColumn@@QBE?AVLNString@@XZ 100301a8     notescpp:lcppn.dll
 0002:000001ac       __imp_??0LNReplicationFileStatistics@@AAE@PAUREPLFILESTATS@@@Z 100301ac     notescpp:lcppn.dll
 0002:000001b0       __imp_??0LNVFNavigator@@QAE@XZ 100301b0     notescpp:lcppn.dll
 0002:000001b4       __imp_??1LNVFPosition@@UAE@XZ 100301b4     notescpp:lcppn.dll
 0002:000001b8       __imp_??0LNVFPosition@@QAE@XZ 100301b8     notescpp:lcppn.dll
 0002:000001bc       __imp_?Close@LNDatabase@@QAEKXZ 100301bc     notescpp:lcppn.dll
 0002:000001c0       __imp_?GetViewFolder@LNDatabase@@QAEKABVLNString@@PAVLNViewFolder@@@Z 100301c0     notescpp:lcppn.dll
 0002:000001c4       __imp_?CreateNoteBody@LNNote@@MAEKKKH@Z 100301c4     notescpp:lcppn.dll
 0002:000001c8       __imp_??1LNNote@@QAE@XZ    100301c8     notescpp:lcppn.dll
 0002:000001cc       __imp_??0LNNote@@QAE@XZ    100301cc     notescpp:lcppn.dll
 0002:000001d0       __imp_?ValidateNoteType@LNViewFolder@@EBEXABVLNNote@@@Z 100301d0     notescpp:lcppn.dll
 0002:000001d4       __imp_?ValidateNoteType@LNViewFolder@@EBEXPBVLNNoteBody@@@Z 100301d4     notescpp:lcppn.dll
 0002:000001d8       __imp_?ValidateNoteType@LNViewFolder@@EBEXK@Z 100301d8     notescpp:lcppn.dll
 0002:000001dc       __imp_?Goto@LNViewFolder@@ABEKW4LNNAVIGATION@@PAVLNVFEntry@@@Z 100301dc     notescpp:lcppn.dll
 0002:000001e0       __imp_?GetColumnCount@LNViewFolder@@QBEKXZ 100301e0     notescpp:lcppn.dll
 0002:000001e4       __imp_?GetColumn@LNViewFolder@@QBEKKPAVLNVFColumn@@@Z 100301e4     notescpp:lcppn.dll
 0002:000001e8       __imp_?SetPosition@LNViewFolder@@QBEKABVLNVFPosition@@@Z 100301e8     notescpp:lcppn.dll
 0002:000001ec       __imp_?GetEntryCount@LNViewFolder@@QBEKXZ 100301ec     notescpp:lcppn.dll
 0002:000001f0       __imp_?Find@LNViewFolder@@QBEKABVLNString@@PAVLNVFEntry@@PAKPAVLNVFNavigator@@@Z 100301f0     notescpp:lcppn.dll
 0002:000001f4       __imp_?Open@LNViewFolder@@UAEKK@Z 100301f4     notescpp:lcppn.dll
 0002:000001f8       __imp_?IsCategory@LNVFEntry@@QBEHXZ 100301f8     notescpp:lcppn.dll
 0002:000001fc       __imp_?GetPosition@LNVFEntry@@QBEKPAVLNVFPosition@@@Z 100301fc     notescpp:lcppn.dll
 0002:00000200       __imp_?GetDocument@LNVFEntry@@QBEKPAVLNDocument@@@Z 10030200     notescpp:lcppn.dll
 0002:00000204       __imp_?GetColumnItem@LNVFEntry@@QBE?AVLNItem@@KH@Z 10030204     notescpp:lcppn.dll
 0002:00000208       __imp_?GetChildCount@LNVFEntry@@QBEKXZ 10030208     notescpp:lcppn.dll
 0002:0000020c       __imp_??1LNReplicationFileStatistics@@UAE@XZ 1003020c     notescpp:lcppn.dll
 0002:00000210       __imp_??0LNReplicationStatistics@@QAE@XZ 10030210     notescpp:lcppn.dll
 0002:00000214       __imp_??1LNReplicationStatistics@@UAE@XZ 10030214     notescpp:lcppn.dll
 0002:00000218       __imp_?Replicate@LNNotesSession@@QBEKABVLNString@@ABVLNReplicationOptions@@PAVLNReplicationStatistics@@@Z 10030218     notescpp:lcppn.dll
 0002:0000021c       __imp_?Close@LNNote@@UAEKXZ 1003021c     notescpp:lcppn.dll
 0002:00000220       __imp_?Save@LNNote@@QAEKG@Z 10030220     notescpp:lcppn.dll
 0002:00000224       __imp_?MakeResponse@LNDocument@@QBEKABV1@@Z 10030224     notescpp:lcppn.dll
 0002:00000228       __imp_??1LNTextElement@@UAE@XZ 10030228     notescpp:lcppn.dll
 0002:0000022c       __imp_??BLNTextElement@@QBE?AVLNString@@XZ 1003022c     notescpp:lcppn.dll
 0002:00000230       __imp_??0LNText@@QAE@ABVLNItem@@@Z 10030230     notescpp:lcppn.dll
 0002:00000234       __imp_??ALNText@@QBE?AVLNTextElement@@K@Z 10030234     notescpp:lcppn.dll
 0002:00000238       __imp_?GetCount@LNText@@QBEKXZ 10030238     notescpp:lcppn.dll
 0002:0000023c       __imp_??0LNNumbers@@QAE@ABVLNItem@@@Z 1003023c     notescpp:lcppn.dll
 0002:00000240       __imp_??ALNNumbers@@QBE?AVLNNumbersElement@@K@Z 10030240     notescpp:lcppn.dll
 0002:00000244       __imp_??1LNDatetimesElement@@UAE@XZ 10030244     notescpp:lcppn.dll
 0002:00000248       __imp_??BLNDatetimesElement@@QBE?AVLNDatetime@@XZ 10030248     notescpp:lcppn.dll
 0002:0000024c       __imp_??1LNNotesClass@@UAE@XZ 1003024c     notescpp:lcppn.dll
 0002:00000250       __imp_?IsOnHeap@LNNotesClass@@UBEHXZ 10030250     notescpp:lcppn.dll
 0002:00000254       __imp_??0LNDatetimes@@QAE@ABVLNItem@@@Z 10030254     notescpp:lcppn.dll
 0002:00000258       __imp_??ALNDatetimes@@QBE?AVLNDatetimesElement@@K@Z 10030258     notescpp:lcppn.dll
 0002:0000025c       __imp_??1LNNumbersElement@@UAE@XZ 1003025c     notescpp:lcppn.dll
 0002:00000260       __imp_??BLNNumbersElement@@QBENXZ 10030260     notescpp:lcppn.dll
 0002:00000264       __imp_?LNDelete@@YAXPAX@Z  10030264     notescpp:lcppn.dll
 0002:00000268       __imp_??0LNString@@QAE@ABV0@@Z 10030268     notescpp:lcppn.dll
 0002:0000026c       __imp_??0LNDatetime@@QAE@ABV0@@Z 1003026c     notescpp:lcppn.dll
 0002:00000270       __imp_?GetDate@LNDatetime@@QBEKPAK00@Z 10030270     notescpp:lcppn.dll
 0002:00000274       __imp_?GetTime@LNDatetime@@QBEKPAK000@Z 10030274     notescpp:lcppn.dll
 0002:00000278       __imp_??0LNUniversalID@@QAE@PBUUNIVERSALNOTEID_tag@@@Z 10030278     notescpp:lcppn.dll
 0002:0000027c       __imp_?GetText@LNUniversalID@@QBE?AVLNString@@XZ 1003027c     notescpp:lcppn.dll
 0002:00000280       __imp_??0LNNoteArray@@QAE@XZ 10030280     notescpp:lcppn.dll
 0002:00000284       __imp_??1LNNoteArray@@UAE@XZ 10030284     notescpp:lcppn.dll
 0002:00000288       __imp_?Add@LNNoteArray@@UAEKPAX@Z 10030288     notescpp:lcppn.dll
 0002:0000028c       __imp_?Add@LNNoteArray@@UAEKABVLNVFNavigator@@@Z 1003028c     notescpp:lcppn.dll
 0002:00000290       __imp_?Add@LNNoteArray@@UAEKABVLNViewFolder@@@Z 10030290     notescpp:lcppn.dll
 0002:00000294       __imp_?Add@LNNoteArray@@UAEKABV1@@Z 10030294     notescpp:lcppn.dll
 0002:00000298       __imp_?Add@LNNoteArray@@UAEKK@Z 10030298     notescpp:lcppn.dll
 0002:0000029c       __imp_?Add@LNNoteArray@@UAEKABVLNNote@@@Z 1003029c     notescpp:lcppn.dll
 0002:000002a0       __imp_?Copy@LNNoteArray@@UBEKPAV1@@Z 100302a0     notescpp:lcppn.dll
 0002:000002a4       __imp_?Contains@LNNoteArray@@UBEHK@Z 100302a4     notescpp:lcppn.dll
 0002:000002a8       __imp_?Contains@LNNoteArray@@UBEHABVLNNote@@@Z 100302a8     notescpp:lcppn.dll
 0002:000002ac       __imp_?GetCount@LNNoteArray@@QBEKXZ 100302ac     notescpp:lcppn.dll
 0002:000002b0       __imp_?Remove@LNNoteArray@@UAEKPAX@Z 100302b0     notescpp:lcppn.dll
 0002:000002b4       __imp_?Remove@LNNoteArray@@UAEKABVLNVFNavigator@@@Z 100302b4     notescpp:lcppn.dll
 0002:000002b8       __imp_?Remove@LNNoteArray@@UAEKABVLNViewFolder@@@Z 100302b8     notescpp:lcppn.dll
 0002:000002bc       __imp_?Remove@LNNoteArray@@UAEKABV1@@Z 100302bc     notescpp:lcppn.dll
 0002:000002c0       __imp_?Remove@LNNoteArray@@UAEKK@Z 100302c0     notescpp:lcppn.dll
 0002:000002c4       __imp_?Remove@LNNoteArray@@UAEKABVLNNote@@@Z 100302c4     notescpp:lcppn.dll
 0002:000002c8       __imp_?RemoveAll@LNNoteArray@@UAEKXZ 100302c8     notescpp:lcppn.dll
 0002:000002cc       __imp_??ALNDocumentArray@@QBE?AVLNDocument@@K@Z 100302cc     notescpp:lcppn.dll
 0002:000002d0       __imp_?GetUniversalID@LNNote@@QBEPAUUNIVERSALNOTEID_tag@@XZ 100302d0     notescpp:lcppn.dll
 0002:000002d4       __imp_??4LNDocument@@QAEAAV0@ABV0@@Z 100302d4     notescpp:lcppn.dll
 0002:000002d8       __imp_?GetResponses@LNDocument@@QBEKPAVLNDocumentArray@@@Z 100302d8     notescpp:lcppn.dll
 0002:000002dc       __imp_?LNStringTranslate@@YAKABVLNString@@W4LNCHARSET@@KPAXPAK@Z 100302dc     notescpp:lcppn.dll
 0002:000002e0       __imp_??0LNRichText@@QAE@ABVLNItem@@@Z 100302e0     notescpp:lcppn.dll
 0002:000002e4       __imp_??1LNRichText@@QAE@XZ 100302e4     notescpp:lcppn.dll
 0002:000002e8       __imp_?GetCursor@LNRichText@@QBEKPAVLNRTCursor@@@Z 100302e8     notescpp:lcppn.dll
 0002:000002ec       __imp_?GetEndCursor@LNRichText@@QBEKPAVLNRTCursor@@@Z 100302ec     notescpp:lcppn.dll
 0002:000002f0       __imp_?GetText@LNRichText@@QBEKABVLNRTCursor@@0PAVLNString@@PAV2@@Z 100302f0     notescpp:lcppn.dll
 0002:000002f4       __imp_??1LNItem@@QAE@XZ    100302f4     notescpp:lcppn.dll
 0002:000002f8       __imp_?GetName@LNItem@@QBE?AVLNString@@XZ 100302f8     notescpp:lcppn.dll
 0002:000002fc       __imp_?GetType@LNItem@@QBEKXZ 100302fc     notescpp:lcppn.dll
 0002:00000300       __imp_??0LNRTCursor@@QAE@XZ 10030300     notescpp:lcppn.dll
 0002:00000304       __imp_??1LNRTCursor@@QAE@XZ 10030304     notescpp:lcppn.dll
 0002:00000308       __imp_??0LNString@@QAE@XZ  10030308     notescpp:lcppn.dll
 0002:0000030c       __imp_?GetLength@LNString@@QBEKXZ 1003030c     notescpp:lcppn.dll
 0002:00000310       __imp_?GetPlatformTextPtr@LNString@@QBEPBDXZ 10030310     notescpp:lcppn.dll
 0002:00000314       __imp_??ALNItemArray@@QBE?AVLNItem@@K@Z 10030314     notescpp:lcppn.dll
 0002:00000318       __imp_?GetItemCount@LNNote@@QBEKXZ 10030318     notescpp:lcppn.dll
 0002:0000031c       __imp_?GetItems@LNNote@@QBEKPAVLNItemArray@@K@Z 1003031c     notescpp:lcppn.dll
 0002:00000320       __imp_?Open@LNDocument@@UAEKK@Z 10030320     notescpp:lcppn.dll
 0002:00000324       __imp_??0LNUniversalID@@QAE@ABVLNString@@@Z 10030324     notescpp:lcppn.dll
 0002:00000328       __imp_?LNGetClassName@@YAPBDW4LNCLASSID@@H@Z 10030328     notescpp:lcppn.dll
 0002:0000032c       __imp_?DeleteBody@LNSmartPtr@@UAEHXZ 1003032c     notescpp:lcppn.dll
 0002:00000330       __imp_?LNSetThrowAllErrorsGlobal@@YAXH@Z 10030330     notescpp:lcppn.dll
 0002:00000334       __imp_??1LNString@@QAE@XZ  10030334     notescpp:lcppn.dll
 0002:00000338       __imp_?IsNull@LNString@@UBEHXZ 10030338     notescpp:lcppn.dll
 0002:0000033c       __imp_?Setup@LNString@@AAEXPBD@Z 1003033c     notescpp:lcppn.dll
 0002:00000340       __imp_??0LNItemArray@@QAE@XZ 10030340     notescpp:lcppn.dll
 0002:00000344       __imp_??1LNItemArray@@QAE@XZ 10030344     notescpp:lcppn.dll
 0002:00000348       __imp_?DeleteDocument@LNDatabase@@QAEKPAVLNDocument@@@Z 10030348     notescpp:lcppn.dll
 0002:0000034c       __imp_?GetDocument@LNDatabase@@QAEKPBUUNIVERSALNOTEID_tag@@PAVLNDocument@@@Z 1003034c     notescpp:lcppn.dll
 0002:00000350       __imp_?Open@LNDatabase@@QAEKXZ 10030350     notescpp:lcppn.dll
 0002:00000354       __imp_??0LNDocument@@QAE@XZ 10030354     notescpp:lcppn.dll
 0002:00000358       __imp_??1LNDocument@@QAE@XZ 10030358     notescpp:lcppn.dll
 0002:0000035c       __imp_?GetDatabase@LNNotesSession@@QAEKABVLNString@@PAVLNDatabase@@0@Z 1003035c     notescpp:lcppn.dll
 0002:00000360       __imp_?InitThread@LNNotesSession@@QAEKXZ 10030360     notescpp:lcppn.dll
 0002:00000364       __imp_?TermThread@LNNotesSession@@QAEKXZ 10030364     notescpp:lcppn.dll
 0002:00000368       __imp_?LNGetErrorMessageText@@YAKKPADKH@Z 10030368     notescpp:lcppn.dll
 0002:0000036c       __imp_??0LNNotesSession@@QAE@XZ 1003036c     notescpp:lcppn.dll
 0002:00000370       __imp_??1LNNotesSession@@UAE@XZ 10030370     notescpp:lcppn.dll
 0002:00000374       __imp_?IsInitialized@LNNotesSession@@QBEHXZ 10030374     notescpp:lcppn.dll
 0002:00000378       __imp_?Term@LNNotesSession@@QAEKH@Z 10030378     notescpp:lcppn.dll
 0002:0000037c       __imp_?Initialize@LNNotesSession@@AAEKKHQAPADHPBD@Z 1003037c     notescpp:lcppn.dll
 0002:00000380       __imp_?GetEntryCount@LNVFNavigator@@QBEKXZ 10030380     notescpp:lcppn.dll
 0002:00000384       \177lcppn_NULL_THUNK_DATA  10030384     notescpp:lcppn.dll
 0002:00000388       ___guard_check_icall_fptr  10030388     LIBCMT:guard_support.obj
 0002:0000038c       ___xc_a                    1003038c     LIBCMT:initializers.obj
 0002:000003b8       __register_addon_          100303b8     addon.obj
 0002:000003bc       ___xc_z                    100303bc     LIBCMT:initializers.obj
 0002:000003c0       ___xi_a                    100303c0     LIBCMT:initializers.obj
 0002:000003cc       ___acrt_stdio_initializer  100303cc     libucrt:stdio_initializer.obj
 0002:000003d0       ___acrt_timeset_initializer 100303d0     libucrt:timeset_initializer.obj
 0002:000003d4       ___acrt_multibyte_initializer 100303d4     libucrt:multibyte_initializer.obj
 0002:000003d8       ___acrt_tran_sse2_initializer 100303d8     libucrt:sse2_initializer.obj
 0002:000003dc       ___xi_z                    100303dc     LIBCMT:initializers.obj
 0002:000003e0       ___xl_a                    100303e0     LIBCMT:tlssup.obj
 0002:000003e4       ___xl_z                    100303e4     LIBCMT:tlssup.obj
 0002:000003e8       ___xp_a                    100303e8     LIBCMT:initializers.obj
 0002:000003ec       ___acrt_locale_terminator  100303ec     libucrt:locale_initializer.obj
 0002:000003f0       ___dcrt_console_output_terminator 100303f0     libucrt:console_output_initializer.obj
 0002:000003f4       ___acrt_stdio_terminator   100303f4     libucrt:stdio_initializer.obj
 0002:000003f8       ___xp_z                    100303f8     LIBCMT:initializers.obj
 0002:000003fc       ___xt_a                    100303fc     LIBCMT:initializers.obj
 0002:00000400       ___xt_z                    10030400     LIBCMT:initializers.obj
 0002:00000410       __sz_node_exe              10030410     node:node.exe
 0002:00000420       ??_7exception@std@@6B@     10030420     libcpmt:cout.obj
 0002:00000428       ??_C@_0BC@EOODALEL@Unknown?5exception?$AA@ 10030428     libcpmt:cout.obj
 0002:00000440       ??_7runtime_error@std@@6B@ 10030440     libcpmt:cout.obj
 0002:0000044c       ??_7bad_cast@std@@6B@      1003044c     libcpmt:cout.obj
 0002:00000454       ??_C@_08EPJLHIJG@bad?5cast?$AA@ 10030454     libcpmt:cout.obj
 0002:00000464       ??_7_Facet_base@std@@6B@   10030464     libcpmt:cout.obj
 0002:00000474       ??_7?$ctype@D@std@@6B@     10030474     libcpmt:cout.obj
 0002:000004a4       ??_7error_category@std@@6B@ 100304a4     libcpmt:cout.obj
 0002:000004c0       ??_7_System_error@std@@6B@ 100304c0     libcpmt:cout.obj
 0002:000004cc       ??_7system_error@std@@6B@  100304cc     libcpmt:cout.obj
 0002:000004d8       ??_7_Iostream_error_category@std@@6B@ 100304d8     libcpmt:cout.obj
 0002:000004f4       ??_7failure@ios_base@std@@6B@ 100304f4     libcpmt:cout.obj
 0002:00000500       ??_7ios_base@std@@6B@      10030500     libcpmt:cout.obj
 0002:00000508       ??_7?$basic_streambuf@DU?$char_traits@D@std@@@std@@6B@ 10030508     libcpmt:cout.obj
 0002:00000548       ??_7?$basic_filebuf@DU?$char_traits@D@std@@@std@@6B@ 10030548     libcpmt:cout.obj
 0002:00000588       ??_7?$basic_ios@DU?$char_traits@D@std@@@std@@6B@ 10030588     libcpmt:cout.obj
 0002:00000590       ??_7?$basic_ostream@DU?$char_traits@D@std@@@std@@6B@ 10030590     libcpmt:cout.obj
 0002:00000594       ??_8?$basic_ostream@DU?$char_traits@D@std@@@std@@7B@ 10030594     libcpmt:cout.obj
 0002:000005a0       ??_7?$codecvt@DDU_Mbstatet@@@std@@6B@ 100305a0     libcpmt:cout.obj
 0002:000005cc       ??_7_Locimp@locale@std@@6B@ 100305cc     libcpmt:locale0.obj
 0002:000005d8       ??_C@_01NBENCBCI@?$CK?$AA@ 100305d8     libcpmt:locale0.obj
 0002:000005dc       ??_C@_01GFHCPBMG@C?$AA@    100305dc     libcpmt:locale0.obj
 0002:000005e4       ??_7bad_alloc@std@@6B@     100305e4     libcpmt:xthrow.obj
 0002:000005ec       ??_C@_0P@GHFPNOJB@bad?5allocation?$AA@ 100305ec     libcpmt:xthrow.obj
 0002:00000600       ??_7logic_error@std@@6B@   10030600     libcpmt:xthrow.obj
 0002:0000060c       ??_7length_error@std@@6B@  1003060c     libcpmt:xthrow.obj
 0002:00000618       ??_7out_of_range@std@@6B@  10030618     libcpmt:xthrow.obj
 0002:00000ae0       ??_C@_0BN@LKKBCCDB@address?5family?5not?5supported?$AA@ 10030ae0     libcpmt:syserror.obj
 0002:00000b00       ??_C@_0P@LDMLAFHI@address?5in?5use?$AA@ 10030b00     libcpmt:syserror.obj
 0002:00000b10       ??_C@_0BG@DHPCNBJB@address?5not?5available?$AA@ 10030b10     libcpmt:syserror.obj
 0002:00000b28       ??_C@_0BC@DFIBIBIL@already?5connected?$AA@ 10030b28     libcpmt:syserror.obj
 0002:00000b3c       ??_C@_0BH@CAKOHOMI@argument?5list?5too?5long?$AA@ 10030b3c     libcpmt:syserror.obj
 0002:00000b54       ??_C@_0BH@CGIMPKIM@argument?5out?5of?5domain?$AA@ 10030b54     libcpmt:syserror.obj
 0002:00000b6c       ??_C@_0M@KGHGGJGL@bad?5address?$AA@ 10030b6c     libcpmt:syserror.obj
 0002:00000b78       ??_C@_0BE@MPJPGCEO@bad?5file?5descriptor?$AA@ 10030b78     libcpmt:syserror.obj
 0002:00000b8c       ??_C@_0M@PMMIEFCP@bad?5message?$AA@ 10030b8c     libcpmt:syserror.obj
 0002:00000b98       ??_C@_0M@KPHOFDBE@broken?5pipe?$AA@ 10030b98     libcpmt:syserror.obj
 0002:00000ba4       ??_C@_0BD@MGNDDEGM@connection?5aborted?$AA@ 10030ba4     libcpmt:syserror.obj
 0002:00000bb8       ??_C@_0BP@KAIHPOGN@connection?5already?5in?5progress?$AA@ 10030bb8     libcpmt:syserror.obj
 0002:00000bd8       ??_C@_0BD@PJLIIJEL@connection?5refused?$AA@ 10030bd8     libcpmt:syserror.obj
 0002:00000bec       ??_C@_0BB@IECNJNOI@connection?5reset?$AA@ 10030bec     libcpmt:syserror.obj
 0002:00000c00       ??_C@_0BC@PPHBOELF@cross?5device?5link?$AA@ 10030c00     libcpmt:syserror.obj
 0002:00000c14       ??_C@_0BN@KDMIFEIP@destination?5address?5required?$AA@ 10030c14     libcpmt:syserror.obj
 0002:00000c34       ??_C@_0BI@NGCEHDD@device?5or?5resource?5busy?$AA@ 10030c34     libcpmt:syserror.obj
 0002:00000c4c       ??_C@_0BE@JIDOCPHM@directory?5not?5empty?$AA@ 10030c4c     libcpmt:syserror.obj
 0002:00000c60       ??_C@_0BI@BNCLIGPB@executable?5format?5error?$AA@ 10030c60     libcpmt:syserror.obj
 0002:00000c78       ??_C@_0M@MIDIAGJP@file?5exists?$AA@ 10030c78     libcpmt:syserror.obj
 0002:00000c84       ??_C@_0P@DNAJLBJK@file?5too?5large?$AA@ 10030c84     libcpmt:syserror.obj
 0002:00000c94       ??_C@_0BC@EJHOMAAK@filename?5too?5long?$AA@ 10030c94     libcpmt:syserror.obj
 0002:00000ca8       ??_C@_0BH@KEFGLDAF@function?5not?5supported?$AA@ 10030ca8     libcpmt:syserror.obj
 0002:00000cc0       ??_C@_0BB@DHFDFGDM@host?5unreachable?$AA@ 10030cc0     libcpmt:syserror.obj
 0002:00000cd4       ??_C@_0BD@JPHBMONG@identifier?5removed?$AA@ 10030cd4     libcpmt:syserror.obj
 0002:00000ce8       ??_C@_0BG@CDNPAGJK@illegal?5byte?5sequence?$AA@ 10030ce8     libcpmt:syserror.obj
 0002:00000d00       ??_C@_0CD@BNPLBMNA@inappropriate?5io?5control?5operati@ 10030d00     libcpmt:syserror.obj
 0002:00000d24       ??_C@_0M@EGEKIIMP@interrupted?$AA@ 10030d24     libcpmt:syserror.obj
 0002:00000d30       ??_C@_0BB@FCMFBGOM@invalid?5argument?$AA@ 10030d30     libcpmt:syserror.obj
 0002:00000d44       ??_C@_0N@OHAFKDEK@invalid?5seek?$AA@ 10030d44     libcpmt:syserror.obj
 0002:00000d54       ??_C@_08GLNPIFBN@io?5error?$AA@ 10030d54     libcpmt:syserror.obj
 0002:00000d60       ??_C@_0P@FLLDBIDK@is?5a?5directory?$AA@ 10030d60     libcpmt:syserror.obj
 0002:00000d70       ??_C@_0N@IFLPBIOP@message?5size?$AA@ 10030d70     libcpmt:syserror.obj
 0002:00000d80       ??_C@_0N@KIIEAAIO@network?5down?$AA@ 10030d80     libcpmt:syserror.obj
 0002:00000d90       ??_C@_0O@FNPDBHEE@network?5reset?$AA@ 10030d90     libcpmt:syserror.obj
 0002:00000da0       ??_C@_0BE@IFNCKGE@network?5unreachable?$AA@ 10030da0     libcpmt:syserror.obj
 0002:00000db4       ??_C@_0BA@PFFCAOFK@no?5buffer?5space?$AA@ 10030db4     libcpmt:syserror.obj
 0002:00000dc4       ??_C@_0BB@IEPBLJHK@no?5child?5process?$AA@ 10030dc4     libcpmt:syserror.obj
 0002:00000dd8       ??_C@_07PLECNNKG@no?5link?$AA@ 10030dd8     libcpmt:syserror.obj
 0002:00000de0       ??_C@_0BC@NJECKMKE@no?5lock?5available?$AA@ 10030de0     libcpmt:syserror.obj
 0002:00000df4       ??_C@_0BF@PBGGPKKE@no?5message?5available?$AA@ 10030df4     libcpmt:syserror.obj
 0002:00000e0c       ??_C@_0L@EDOLMPAK@no?5message?$AA@ 10030e0c     libcpmt:syserror.obj
 0002:00000e18       ??_C@_0BD@EAMBFIDF@no?5protocol?5option?$AA@ 10030e18     libcpmt:syserror.obj
 0002:00000e2c       ??_C@_0BD@IJDJKDEA@no?5space?5on?5device?$AA@ 10030e2c     libcpmt:syserror.obj
 0002:00000e40       ??_C@_0BE@MKFDAFMP@no?5stream?5resources?$AA@ 10030e40     libcpmt:syserror.obj
 0002:00000e54       ??_C@_0BK@IMCPHCBI@no?5such?5device?5or?5address?$AA@ 10030e54     libcpmt:syserror.obj
 0002:00000e70       ??_C@_0P@FDINDDOK@no?5such?5device?$AA@ 10030e70     libcpmt:syserror.obj
 0002:00000e80       ??_C@_0BK@NDOCBPGE@no?5such?5file?5or?5directory?$AA@ 10030e80     libcpmt:syserror.obj
 0002:00000e9c       ??_C@_0BA@ENLPPKBN@no?5such?5process?$AA@ 10030e9c     libcpmt:syserror.obj
 0002:00000eac       ??_C@_0BA@DOCPFFJG@not?5a?5directory?$AA@ 10030eac     libcpmt:syserror.obj
 0002:00000ebc       ??_C@_0N@POEIPGGF@not?5a?5socket?$AA@ 10030ebc     libcpmt:syserror.obj
 0002:00000ecc       ??_C@_0N@LGAPMMPI@not?5a?5stream?$AA@ 10030ecc     libcpmt:syserror.obj
 0002:00000edc       ??_C@_0O@GLMIBBEG@not?5connected?$AA@ 10030edc     libcpmt:syserror.obj
 0002:00000eec       ??_C@_0BC@ENOOLCNF@not?5enough?5memory?$AA@ 10030eec     libcpmt:syserror.obj
 0002:00000f00       ??_C@_0O@NHEDABJP@not?5supported?$AA@ 10030f00     libcpmt:syserror.obj
 0002:00000f10       ??_C@_0BD@MOLBPMEA@operation?5canceled?$AA@ 10030f10     libcpmt:syserror.obj
 0002:00000f24       ??_C@_0BG@KDKHOPCO@operation?5in?5progress?$AA@ 10030f24     libcpmt:syserror.obj
 0002:00000f3c       ??_C@_0BI@OHIEJAAB@operation?5not?5permitted?$AA@ 10030f3c     libcpmt:syserror.obj
 0002:00000f54       ??_C@_0BI@LNEGIFLN@operation?5not?5supported?$AA@ 10030f54     libcpmt:syserror.obj
 0002:00000f6c       ??_C@_0BG@OEMDKMEE@operation?5would?5block?$AA@ 10030f6c     libcpmt:syserror.obj
 0002:00000f84       ??_C@_0L@BLPOFLNJ@owner?5dead?$AA@ 10030f84     libcpmt:syserror.obj
 0002:00000f90       ??_C@_0BC@CIJDGCDI@permission?5denied?$AA@ 10030f90     libcpmt:syserror.obj
 0002:00000fa4       ??_C@_0P@FNPOCJBE@protocol?5error?$AA@ 10030fa4     libcpmt:syserror.obj
 0002:00000fb4       ??_C@_0BH@JPPPLHJB@protocol?5not?5supported?$AA@ 10030fb4     libcpmt:syserror.obj
 0002:00000fcc       ??_C@_0BG@EICBIHDP@read?5only?5file?5system?$AA@ 10030fcc     libcpmt:syserror.obj
 0002:00000fe4       ??_C@_0BO@BJBOMOEJ@resource?5deadlock?5would?5occur?$AA@ 10030fe4     libcpmt:syserror.obj
 0002:00001004       ??_C@_0BP@LKNGHENJ@resource?5unavailable?5try?5again?$AA@ 10031004     libcpmt:syserror.obj
 0002:00001024       ??_C@_0BE@GOIPJJHG@result?5out?5of?5range?$AA@ 10031024     libcpmt:syserror.obj
 0002:00001038       ??_C@_0BG@MPLKFPAE@state?5not?5recoverable?$AA@ 10031038     libcpmt:syserror.obj
 0002:00001050       ??_C@_0P@DIIFGFCG@stream?5timeout?$AA@ 10031050     libcpmt:syserror.obj
 0002:00001060       ??_C@_0P@IPFDMIFL@text?5file?5busy?$AA@ 10031060     libcpmt:syserror.obj
 0002:00001070       ??_C@_09KJPPMAOI@timed?5out?$AA@ 10031070     libcpmt:syserror.obj
 0002:0000107c       ??_C@_0BO@HACHBEKI@too?5many?5files?5open?5in?5system?$AA@ 1003107c     libcpmt:syserror.obj
 0002:0000109c       ??_C@_0BE@GHAFMPAH@too?5many?5files?5open?$AA@ 1003109c     libcpmt:syserror.obj
 0002:000010b0       ??_C@_0P@HCOMKFCC@too?5many?5links?$AA@ 100310b0     libcpmt:syserror.obj
 0002:000010c0       ??_C@_0BO@EFGOJEF@too?5many?5symbolic?5link?5levels?$AA@ 100310c0     libcpmt:syserror.obj
 0002:000010e0       ??_C@_0BA@KGKGOOJA@value?5too?5large?$AA@ 100310e0     libcpmt:syserror.obj
 0002:000010f0       ??_C@_0BE@MIEJDDNH@wrong?5protocol?5type?$AA@ 100310f0     libcpmt:syserror.obj
 0002:00001104       ??_C@_0O@BFJCFAAK@unknown?5error?$AA@ 10031104     libcpmt:syserror.obj
 0002:00001118       ?_BADOFF@std@@3_JB         10031118     libcpmt:ios.obj
 0002:00001124       ??_7?$num_put@DV?$ostreambuf_iterator@DU?$char_traits@D@std@@@std@@@std@@6B@ 10031124     libcpmt:locale.obj
 0002:00001154       ??_7?$numpunct@D@std@@6B@  10031154     libcpmt:locale.obj
 0002:00001174       ??_C@_1BK@MGMFAEKH@?$AAk?$AAe?$AAr?$AAn?$AAe?$AAl?$AA3?$AA2?$AA?4?$AAd?$AAl?$AAl?$AA?$AA@ 10031174     libcpmt:winapisupp.obj
 0002:00001190       ??_C@_08KNHFBNJ@FlsAlloc?$AA@ 10031190     libcpmt:winapisupp.obj
 0002:0000119c       ??_C@_07PEJMOBNF@FlsFree?$AA@ 1003119c     libcpmt:winapisupp.obj
 0002:000011a4       ??_C@_0M@GDNOONDI@FlsGetValue?$AA@ 100311a4     libcpmt:winapisupp.obj
 0002:000011b0       ??_C@_0M@JCPCPOEF@FlsSetValue?$AA@ 100311b0     libcpmt:winapisupp.obj
 0002:000011bc       ??_C@_0BM@HCFOFFN@InitializeCriticalSectionEx?$AA@ 100311bc     libcpmt:winapisupp.obj
 0002:000011d8       ??_C@_0BE@GPLMMCMH@InitOnceExecuteOnce?$AA@ 100311d8     libcpmt:winapisupp.obj
 0002:000011ec       ??_C@_0P@DLHPPCNH@CreateEventExW?$AA@ 100311ec     libcpmt:winapisupp.obj
 0002:000011fc       ??_C@_0BB@MEFPJLHN@CreateSemaphoreW?$AA@ 100311fc     libcpmt:winapisupp.obj
 0002:00001210       ??_C@_0BD@KIEEOEEH@CreateSemaphoreExW?$AA@ 10031210     libcpmt:winapisupp.obj
 0002:00001224       ??_C@_0BG@OGFAJCKC@CreateThreadpoolTimer?$AA@ 10031224     libcpmt:winapisupp.obj
 0002:0000123c       ??_C@_0BD@LPLEMMDI@SetThreadpoolTimer?$AA@ 1003123c     libcpmt:winapisupp.obj
 0002:00001250       ??_C@_0CA@FMNJENH@WaitForThreadpoolTimerCallbacks?$AA@ 10031250     libcpmt:winapisupp.obj
 0002:00001270       ??_C@_0BF@DCFCCNOC@CloseThreadpoolTimer?$AA@ 10031270     libcpmt:winapisupp.obj
 0002:00001288       ??_C@_0BF@FLABGKKM@CreateThreadpoolWait?$AA@ 10031288     libcpmt:winapisupp.obj
 0002:000012a0       ??_C@_0BC@MGCOHNA@SetThreadpoolWait?$AA@ 100312a0     libcpmt:winapisupp.obj
 0002:000012b4       ??_C@_0BE@OCIOMIMP@CloseThreadpoolWait?$AA@ 100312b4     libcpmt:winapisupp.obj
 0002:000012c8       ??_C@_0BJ@LKGHFHBO@FlushProcessWriteBuffers?$AA@ 100312c8     libcpmt:winapisupp.obj
 0002:000012e4       ??_C@_0BP@KALKKPMO@FreeLibraryWhenCallbackReturns?$AA@ 100312e4     libcpmt:winapisupp.obj
 0002:00001304       ??_C@_0BK@DFNBACLA@GetCurrentProcessorNumber?$AA@ 10031304     libcpmt:winapisupp.obj
 0002:00001320       ??_C@_0BE@FKKLLFLM@CreateSymbolicLinkW?$AA@ 10031320     libcpmt:winapisupp.obj
 0002:00001334       ??_C@_0BE@JOGNEJCI@GetCurrentPackageId?$AA@ 10031334     libcpmt:winapisupp.obj
 0002:00001348       ??_C@_0P@CDHHOHKP@GetTickCount64?$AA@ 10031348     libcpmt:winapisupp.obj
 0002:00001358       ??_C@_0BN@NEEHBBPO@GetFileInformationByHandleEx?$AA@ 10031358     libcpmt:winapisupp.obj
 0002:00001378       ??_C@_0BL@KBBHGKCM@SetFileInformationByHandle?$AA@ 10031378     libcpmt:winapisupp.obj
 0002:00001394       ??_C@_0BP@FPNJPEJC@GetSystemTimePreciseAsFileTime?$AA@ 10031394     libcpmt:winapisupp.obj
 0002:000013b4       ??_C@_0BM@HLJJNPAH@InitializeConditionVariable?$AA@ 100313b4     libcpmt:winapisupp.obj
 0002:000013d0       ??_C@_0BG@BFNILBLN@WakeConditionVariable?$AA@ 100313d0     libcpmt:winapisupp.obj
 0002:000013e8       ??_C@_0BJ@PGPPEPCC@WakeAllConditionVariable?$AA@ 100313e8     libcpmt:winapisupp.obj
 0002:00001404       ??_C@_0BJ@JEBJOJFJ@SleepConditionVariableCS?$AA@ 10031404     libcpmt:winapisupp.obj
 0002:00001420       ??_C@_0BC@MMLHEBPB@InitializeSRWLock?$AA@ 10031420     libcpmt:winapisupp.obj
 0002:00001434       ??_C@_0BI@OMNLIJDB@AcquireSRWLockExclusive?$AA@ 10031434     libcpmt:winapisupp.obj
 0002:0000144c       ??_C@_0BL@OGHFEMNA@TryAcquireSRWLockExclusive?$AA@ 1003144c     libcpmt:winapisupp.obj
 0002:00001468       ??_C@_0BI@HMIEPCNJ@ReleaseSRWLockExclusive?$AA@ 10031468     libcpmt:winapisupp.obj
 0002:00001480       ??_C@_0BK@LGACAGIC@SleepConditionVariableSRW?$AA@ 10031480     libcpmt:winapisupp.obj
 0002:0000149c       ??_C@_0BF@GGPHFPJA@CreateThreadpoolWork?$AA@ 1003149c     libcpmt:winapisupp.obj
 0002:000014b4       ??_C@_0BF@NHDAIMMO@SubmitThreadpoolWork?$AA@ 100314b4     libcpmt:winapisupp.obj
 0002:000014cc       ??_C@_0BE@NPHIPNPD@CloseThreadpoolWork?$AA@ 100314cc     libcpmt:winapisupp.obj
 0002:000014e0       ??_C@_0BA@IHGNDAEB@CompareStringEx?$AA@ 100314e0     libcpmt:winapisupp.obj
 0002:000014f0       ??_C@_0BA@ONOKGCMP@GetLocaleInfoEx?$AA@ 100314f0     libcpmt:winapisupp.obj
 0002:00001500       ??_C@_0O@KKBNKAPF@LCMapStringEx?$AA@ 10031500     libcpmt:winapisupp.obj
 0002:00001510       ??_C@_11LOCGONAA@?$AA?$AA@ 10031510     libcpmt:wlocale.obj
 0002:00001514       ??_C@_01JOAMLHOP@?9?$AA@   10031514     libcpmt:wlocale.obj
 0002:000023f8       ??_C@_15EMKDOKLE@?$AAa?$AAr?$AA?$AA@ 100323f8     libcpmt:winapinls.obj
 0002:00002400       ??_C@_15KNPADPLH@?$AAb?$AAg?$AA?$AA@ 10032400     libcpmt:winapinls.obj
 0002:00002408       ??_C@_15EDMHLDMO@?$AAc?$AAa?$AA?$AA@ 10032408     libcpmt:winapinls.obj
 0002:00002410       ??_C@_1O@BPEAJADD@?$AAz?$AAh?$AA?9?$AAC?$AAH?$AAS?$AA?$AA@ 10032410     libcpmt:winapinls.obj
 0002:00002420       ??_C@_15LJNHCMNK@?$AAc?$AAs?$AA?$AA@ 10032420     libcpmt:winapinls.obj
 0002:00002428       ??_C@_15FOMCIDHG@?$AAd?$AAa?$AA?$AA@ 10032428     libcpmt:winapinls.obj
 0002:00002430       ??_C@_15NBKABECB@?$AAd?$AAe?$AA?$AA@ 10032430     libcpmt:winapinls.obj
 0002:00002438       ??_C@_15GHPEIIAO@?$AAe?$AAl?$AA?$AA@ 10032438     libcpmt:winapinls.obj
 0002:00002440       ??_C@_15MNPNEAIF@?$AAe?$AAn?$AA?$AA@ 10032440     libcpmt:winapinls.obj
 0002:00002448       ??_C@_15GPIOMPMH@?$AAe?$AAs?$AA?$AA@ 10032448     libcpmt:winapinls.obj
 0002:00002450       ??_C@_15NGLOAKJC@?$AAf?$AAi?$AA?$AA@ 10032450     libcpmt:winapinls.obj
 0002:00002458       ??_C@_15FBKGNKAM@?$AAf?$AAr?$AA?$AA@ 10032458     libcpmt:winapinls.obj
 0002:00002460       ??_C@_15KGGCNEFK@?$AAh?$AAe?$AA?$AA@ 10032460     libcpmt:winapinls.obj
 0002:00002468       ??_C@_15PGHLIDMF@?$AAh?$AAu?$AA?$AA@ 10032468     libcpmt:winapinls.obj
 0002:00002470       ??_C@_15BIEMAPLM@?$AAi?$AAs?$AA?$AA@ 10032470     libcpmt:winapinls.obj
 0002:00002478       ??_C@_15IFJLDHAF@?$AAi?$AAt?$AA?$AA@ 10032478     libcpmt:winapinls.obj
 0002:00002480       ??_C@_15GEMIOCAG@?$AAj?$AAa?$AA?$AA@ 10032480     libcpmt:winapinls.obj
 0002:00002488       ??_C@_15EPELEGJA@?$AAk?$AAo?$AA?$AA@ 10032488     libcpmt:winapinls.obj
 0002:00002490       ??_C@_15NDDHIMN@?$AAn?$AAl?$AA?$AA@ 10032490     libcpmt:winapinls.obj
 0002:00002498       ??_C@_15BPIGNHCD@?$AAn?$AAo?$AA?$AA@ 10032498     libcpmt:winapinls.obj
 0002:000024a0       ??_C@_15DEOPBLCG@?$AAp?$AAl?$AA?$AA@ 100324a0     libcpmt:winapinls.obj
 0002:000024a8       ??_C@_15KBECGEFG@?$AAp?$AAt?$AA?$AA@ 100324a8     libcpmt:winapinls.obj
 0002:000024b0       ??_C@_15GLJCBFMD@?$AAr?$AAo?$AA?$AA@ 100324b0     libcpmt:winapinls.obj
 0002:000024b8       ??_C@_15FEDGKCDI@?$AAr?$AAu?$AA?$AA@ 100324b8     libcpmt:winapinls.obj
 0002:000024c0       ??_C@_15GLKMLLHM@?$AAh?$AAr?$AA?$AA@ 100324c0     libcpmt:winapinls.obj
 0002:000024c8       ??_C@_15CPKMFBDB@?$AAs?$AAk?$AA?$AA@ 100324c8     libcpmt:winapinls.obj
 0002:000024d0       ??_C@_15BAAIOGMK@?$AAs?$AAq?$AA?$AA@ 100324d0     libcpmt:winapinls.obj
 0002:000024d8       ??_C@_15INNPNOHD@?$AAs?$AAv?$AA?$AA@ 100324d8     libcpmt:winapinls.obj
 0002:000024e0       ??_C@_15CABMMOGH@?$AAt?$AAh?$AA?$AA@ 100324e0     libcpmt:winapinls.obj
 0002:000024e8       ??_C@_15BPLIHJJM@?$AAt?$AAr?$AA?$AA@ 100324e8     libcpmt:winapinls.obj
 0002:000024f0       ??_C@_15NEOEKKDJ@?$AAu?$AAr?$AA?$AA@ 100324f0     libcpmt:winapinls.obj
 0002:000024f8       ??_C@_15NFICGAJK@?$AAi?$AAd?$AA?$AA@ 100324f8     libcpmt:winapinls.obj
 0002:00002500       ??_C@_15PJPFLCCM@?$AAu?$AAk?$AA?$AA@ 10032500     libcpmt:winapinls.obj
 0002:00002508       ??_C@_15HPJPHDM@?$AAb?$AAe?$AA?$AA@ 10032508     libcpmt:winapinls.obj
 0002:00002510       ??_C@_15LCHLGJII@?$AAs?$AAl?$AA?$AA@ 10032510     libcpmt:winapinls.obj
 0002:00002518       ??_C@_15PCFJPHHO@?$AAe?$AAt?$AA?$AA@ 10032518     libcpmt:winapinls.obj
 0002:00002520       ??_C@_15HPFPGODN@?$AAl?$AAv?$AA?$AA@ 10032520     libcpmt:winapinls.obj
 0002:00002528       ??_C@_15NFFGKGLG@?$AAl?$AAt?$AA?$AA@ 10032528     libcpmt:winapinls.obj
 0002:00002530       ??_C@_15BDAKCCHN@?$AAf?$AAa?$AA?$AA@ 10032530     libcpmt:winapinls.obj
 0002:00002538       ??_C@_15NFGIAIAJ@?$AAv?$AAi?$AA?$AA@ 10032538     libcpmt:winapinls.obj
 0002:00002540       ??_C@_15LMKNDMHN@?$AAh?$AAy?$AA?$AA@ 10032540     libcpmt:winapinls.obj
 0002:00002548       ??_C@_15IJBHMCFL@?$AAa?$AAz?$AA?$AA@ 10032548     libcpmt:winapinls.obj
 0002:00002550       ??_C@_15EKOFJABL@?$AAe?$AAu?$AA?$AA@ 10032550     libcpmt:winapinls.obj
 0002:00002558       ??_C@_15BGHADCNK@?$AAm?$AAk?$AA?$AA@ 10032558     libcpmt:winapinls.obj
 0002:00002560       ??_C@_15JDNICKHM@?$AAa?$AAf?$AA?$AA@ 10032560     libcpmt:winapinls.obj
 0002:00002568       ??_C@_15KPJEDBKD@?$AAk?$AAa?$AA?$AA@ 10032568     libcpmt:winapinls.obj
 0002:00002570       ??_C@_15PDNFFFEO@?$AAf?$AAo?$AA?$AA@ 10032570     libcpmt:winapinls.obj
 0002:00002578       ??_C@_15OMLEGLOC@?$AAh?$AAi?$AA?$AA@ 10032578     libcpmt:winapinls.obj
 0002:00002580       ??_C@_15IDNNENKK@?$AAm?$AAs?$AA?$AA@ 10032580     libcpmt:winapinls.obj
 0002:00002588       ??_C@_15MACJNBMH@?$AAk?$AAk?$AA?$AA@ 10032588     libcpmt:winapinls.obj
 0002:00002590       ??_C@_15DKDJEOND@?$AAk?$AAy?$AA?$AA@ 10032590     libcpmt:winapinls.obj
 0002:00002598       ??_C@_15DFGDLJBG@?$AAs?$AAw?$AA?$AA@ 10032598     libcpmt:winapinls.obj
 0002:000025a0       ??_C@_15BBFAICNG@?$AAu?$AAz?$AA?$AA@ 100325a0     libcpmt:winapinls.obj
 0002:000025a8       ??_C@_15DKNDCGEA@?$AAt?$AAt?$AA?$AA@ 100325a8     libcpmt:winapinls.obj
 0002:000025b0       ??_C@_15MGIFMDPL@?$AAp?$AAa?$AA?$AA@ 100325b0     libcpmt:winapinls.obj
 0002:000025b8       ??_C@_15HCNDBBA@?$AAg?$AAu?$AA?$AA@ 100325b8     libcpmt:winapinls.obj
 0002:000025c0       ??_C@_15FNBEIBON@?$AAt?$AAa?$AA?$AA@ 100325c0     libcpmt:winapinls.obj
 0002:000025c8       ??_C@_15NCHGBGLK@?$AAt?$AAe?$AA?$AA@ 100325c8     libcpmt:winapinls.obj
 0002:000025d0       ??_C@_15PHPHCBPF@?$AAk?$AAn?$AA?$AA@ 100325d0     libcpmt:winapinls.obj
 0002:000025d8       ??_C@_15DLGBCKMP@?$AAm?$AAr?$AA?$AA@ 100325d8     libcpmt:winapinls.obj
 0002:000025e0       ??_C@_15EABBLBFF@?$AAs?$AAa?$AA?$AA@ 100325e0     libcpmt:winapinls.obj
 0002:000025e8       ??_C@_15CBKOMCOI@?$AAm?$AAn?$AA?$AA@ 100325e8     libcpmt:winapinls.obj
 0002:000025f0       ??_C@_15CKDMCJAF@?$AAg?$AAl?$AA?$AA@ 100325f0     libcpmt:winapinls.obj
 0002:000025f8       ??_C@_17CNJFBPG@?$AAk?$AAo?$AAk?$AA?$AA@ 100325f8     libcpmt:winapinls.obj
 0002:00002600       ??_C@_17FFBJICPL@?$AAs?$AAy?$AAr?$AA?$AA@ 10032600     libcpmt:winapinls.obj
 0002:00002608       ??_C@_17KPNDCPAF@?$AAd?$AAi?$AAv?$AA?$AA@ 10032608     libcpmt:winapinls.obj
 0002:00002610       ??_C@_1M@OKAHONE@?$AAa?$AAr?$AA?9?$AAS?$AAA?$AA?$AA@ 10032610     libcpmt:winapinls.obj
 0002:0000261c       ??_C@_1M@FFFIGIGK@?$AAb?$AAg?$AA?9?$AAB?$AAG?$AA?$AA@ 1003261c     libcpmt:winapinls.obj
 0002:00002628       ??_C@_1M@BJNKEDC@?$AAc?$AAa?$AA?9?$AAE?$AAS?$AA?$AA@ 10032628     libcpmt:winapinls.obj
 0002:00002634       ??_C@_1M@CLNBBOPM@?$AAz?$AAh?$AA?9?$AAT?$AAW?$AA?$AA@ 10032634     libcpmt:winapinls.obj
 0002:00002640       ??_C@_1M@IJJHFJHA@?$AAc?$AAs?$AA?9?$AAC?$AAZ?$AA?$AA@ 10032640     libcpmt:winapinls.obj
 0002:0000264c       ??_C@_1M@CLPEOBGI@?$AAd?$AAa?$AA?9?$AAD?$AAK?$AA?$AA@ 1003264c     libcpmt:winapinls.obj
 0002:00002658       ??_C@_1M@MCMADGCB@?$AAd?$AAe?$AA?9?$AAD?$AAE?$AA?$AA@ 10032658     libcpmt:winapinls.obj
 0002:00002664       ??_C@_1M@OOCKEMAM@?$AAe?$AAl?$AA?9?$AAG?$AAR?$AA?$AA@ 10032664     libcpmt:winapinls.obj
 0002:00002670       ??_C@_1M@BMHNFIME@?$AAe?$AAn?$AA?9?$AAU?$AAS?$AA?$AA@ 10032670     libcpmt:winapinls.obj
 0002:0000267c       ??_C@_1M@DDNJFGID@?$AAf?$AAi?$AA?9?$AAF?$AAI?$AA?$AA@ 1003267c     libcpmt:winapinls.obj
 0002:00002688       ??_C@_1M@GLIPPMAC@?$AAf?$AAr?$AA?9?$AAF?$AAR?$AA?$AA@ 10032688     libcpmt:winapinls.obj
 0002:00002694       ??_C@_1M@GFMCHPE@?$AAh?$AAe?$AA?9?$AAI?$AAL?$AA?$AA@ 10032694     libcpmt:winapinls.obj
 0002:000026a0       ??_C@_1M@MHLPGNKM@?$AAh?$AAu?$AA?9?$AAH?$AAU?$AA?$AA@ 100326a0     libcpmt:winapinls.obj
 0002:000026ac       ??_C@_1M@LPDDNNPN@?$AAi?$AAs?$AA?9?$AAI?$AAS?$AA?$AA@ 100326ac     libcpmt:winapinls.obj
 0002:000026b8       ??_C@_1M@MADIPODN@?$AAi?$AAt?$AA?9?$AAI?$AAT?$AA?$AA@ 100326b8     libcpmt:winapinls.obj
 0002:000026c4       ??_C@_1M@HPNHIDJI@?$AAj?$AAa?$AA?9?$AAJ?$AAP?$AA?$AA@ 100326c4     libcpmt:winapinls.obj
 0002:000026d0       ??_C@_1M@JLOOOEGK@?$AAk?$AAo?$AA?9?$AAK?$AAR?$AA?$AA@ 100326d0     libcpmt:winapinls.obj
 0002:000026dc       ??_C@_1M@IHBJJGG@?$AAn?$AAl?$AA?9?$AAN?$AAL?$AA?$AA@ 100326dc     libcpmt:winapinls.obj
 0002:000026e8       ??_C@_1M@EANAGDL@?$AAn?$AAb?$AA?9?$AAN?$AAO?$AA?$AA@ 100326e8     libcpmt:winapinls.obj
 0002:000026f4       ??_C@_1M@NEIEMEGP@?$AAp?$AAl?$AA?9?$AAP?$AAL?$AA?$AA@ 100326f4     libcpmt:winapinls.obj
 0002:00002700       ??_C@_1M@BOCFIGEP@?$AAp?$AAt?$AA?9?$AAB?$AAR?$AA?$AA@ 10032700     libcpmt:winapinls.obj
 0002:0000270c       ??_C@_1M@IMPFOPBG@?$AAr?$AAo?$AA?9?$AAR?$AAO?$AA?$AA@ 1003270c     libcpmt:winapinls.obj
 0002:00002718       ??_C@_1M@IDNNEJMM@?$AAr?$AAu?$AA?9?$AAR?$AAU?$AA?$AA@ 10032718     libcpmt:winapinls.obj
 0002:00002724       ??_C@_1M@LILEEOGM@?$AAh?$AAr?$AA?9?$AAH?$AAR?$AA?$AA@ 10032724     libcpmt:winapinls.obj
 0002:00002730       ??_C@_1M@FKIFEHPB@?$AAs?$AAk?$AA?9?$AAS?$AAK?$AA?$AA@ 10032730     libcpmt:winapinls.obj
 0002:0000273c       ??_C@_1M@LJMAMNPJ@?$AAs?$AAq?$AA?9?$AAA?$AAL?$AA?$AA@ 1003273c     libcpmt:winapinls.obj
 0002:00002748       ??_C@_1M@GIAKDKJK@?$AAs?$AAv?$AA?9?$AAS?$AAE?$AA?$AA@ 10032748     libcpmt:winapinls.obj
 0002:00002754       ??_C@_1M@MKJKIKCL@?$AAt?$AAh?$AA?9?$AAT?$AAH?$AA?$AA@ 10032754     libcpmt:winapinls.obj
 0002:00002760       ??_C@_1M@MFLCCMPB@?$AAt?$AAr?$AA?9?$AAT?$AAR?$AA?$AA@ 10032760     libcpmt:winapinls.obj
 0002:0000276c       ??_C@_1M@OIJHDKJN@?$AAu?$AAr?$AA?9?$AAP?$AAK?$AA?$AA@ 1003276c     libcpmt:winapinls.obj
 0002:00002778       ??_C@_1M@LHIPCIEK@?$AAi?$AAd?$AA?9?$AAI?$AAD?$AA?$AA@ 10032778     libcpmt:winapinls.obj
 0002:00002784       ??_C@_1M@MFMOBGI@?$AAu?$AAk?$AA?9?$AAU?$AAA?$AA?$AA@ 10032784     libcpmt:winapinls.obj
 0002:00002790       ??_C@_1M@OBGLJIPL@?$AAb?$AAe?$AA?9?$AAB?$AAY?$AA?$AA@ 10032790     libcpmt:winapinls.obj
 0002:0000279c       ??_C@_1M@BCFAJEAD@?$AAs?$AAl?$AA?9?$AAS?$AAI?$AA?$AA@ 1003279c     libcpmt:winapinls.obj
 0002:000027a8       ??_C@_1M@FKFFEDDN@?$AAe?$AAt?$AA?9?$AAE?$AAE?$AA?$AA@ 100327a8     libcpmt:winapinls.obj
 0002:000027b4       ??_C@_1M@KGKKAACI@?$AAl?$AAv?$AA?9?$AAL?$AAV?$AA?$AA@ 100327b4     libcpmt:winapinls.obj
 0002:000027c0       ??_C@_1M@IFGBIJO@?$AAl?$AAt?$AA?9?$AAL?$AAT?$AA?$AA@ 100327c0     libcpmt:winapinls.obj
 0002:000027cc       ??_C@_1M@FGEAHEDM@?$AAf?$AAa?$AA?9?$AAI?$AAR?$AA?$AA@ 100327cc     libcpmt:winapinls.obj
 0002:000027d8       ??_C@_1M@KBMAIBFN@?$AAv?$AAi?$AA?9?$AAV?$AAN?$AA?$AA@ 100327d8     libcpmt:winapinls.obj
 0002:000027e4       ??_C@_1M@GPCBKDJK@?$AAh?$AAy?$AA?9?$AAA?$AAM?$AA?$AA@ 100327e4     libcpmt:winapinls.obj
 0002:000027f0       ??_C@_1BG@BECMDDJB@?$AAa?$AAz?$AA?9?$AAA?$AAZ?$AA?9?$AAL?$AAa?$AAt?$AAn?$AA?$AA@ 100327f0     libcpmt:winapinls.obj
 0002:00002808       ??_C@_1M@MAOFCAEA@?$AAe?$AAu?$AA?9?$AAE?$AAS?$AA?$AA@ 10032808     libcpmt:winapinls.obj
 0002:00002814       ??_C@_1M@IGHABKPI@?$AAm?$AAk?$AA?9?$AAM?$AAK?$AA?$AA@ 10032814     libcpmt:winapinls.obj
 0002:00002820       ??_C@_1M@IAIGNEJG@?$AAt?$AAn?$AA?9?$AAZ?$AAA?$AA?$AA@ 10032820     libcpmt:winapinls.obj
 0002:0000282c       ??_C@_1M@IIJCOJFA@?$AAx?$AAh?$AA?9?$AAZ?$AAA?$AA?$AA@ 1003282c     libcpmt:winapinls.obj
 0002:00002838       ??_C@_1M@LGPJHNJH@?$AAz?$AAu?$AA?9?$AAZ?$AAA?$AA?$AA@ 10032838     libcpmt:winapinls.obj
 0002:00002844       ??_C@_1M@HOKAOIO@?$AAa?$AAf?$AA?9?$AAZ?$AAA?$AA?$AA@ 10032844     libcpmt:winapinls.obj
 0002:00002850       ??_C@_1M@DPCLHLIE@?$AAk?$AAa?$AA?9?$AAG?$AAE?$AA?$AA@ 10032850     libcpmt:winapinls.obj
 0002:0000285c       ??_C@_1M@BLKMHJBI@?$AAf?$AAo?$AA?9?$AAF?$AAO?$AA?$AA@ 1003285c     libcpmt:winapinls.obj
 0002:00002868       ??_C@_1M@LGGJAPPB@?$AAh?$AAi?$AA?9?$AAI?$AAN?$AA?$AA@ 10032868     libcpmt:winapinls.obj
 0002:00002874       ??_C@_1M@FIKPIHFE@?$AAm?$AAt?$AA?9?$AAM?$AAT?$AA?$AA@ 10032874     libcpmt:winapinls.obj
 0002:00002880       ??_C@_1M@HEGGPBFA@?$AAs?$AAe?$AA?9?$AAN?$AAO?$AA?$AA@ 10032880     libcpmt:winapinls.obj
 0002:0000288c       ??_C@_1M@EIBJEEPA@?$AAm?$AAs?$AA?9?$AAM?$AAY?$AA?$AA@ 1003288c     libcpmt:winapinls.obj
 0002:00002898       ??_C@_1M@FHLBGMPP@?$AAk?$AAk?$AA?9?$AAK?$AAZ?$AA?$AA@ 10032898     libcpmt:winapinls.obj
 0002:000028a4       ??_C@_1M@NGJJLCGI@?$AAk?$AAy?$AA?9?$AAK?$AAG?$AA?$AA@ 100328a4     libcpmt:winapinls.obj
 0002:000028b0       ??_C@_1M@GIENNBFC@?$AAs?$AAw?$AA?9?$AAK?$AAE?$AA?$AA@ 100328b0     libcpmt:winapinls.obj
 0002:000028bc       ??_C@_1BG@NDGMJIMJ@?$AAu?$AAz?$AA?9?$AAU?$AAZ?$AA?9?$AAL?$AAa?$AAt?$AAn?$AA?$AA@ 100328bc     libcpmt:winapinls.obj
 0002:000028d4       ??_C@_1M@IDCCIHBC@?$AAt?$AAt?$AA?9?$AAR?$AAU?$AA?$AA@ 100328d4     libcpmt:winapinls.obj
 0002:000028e0       ??_C@_1M@LOICPMOJ@?$AAb?$AAn?$AA?9?$AAI?$AAN?$AA?$AA@ 100328e0     libcpmt:winapinls.obj
 0002:000028ec       ??_C@_1M@KPKKNEAH@?$AAp?$AAa?$AA?9?$AAI?$AAN?$AA?$AA@ 100328ec     libcpmt:winapinls.obj
 0002:000028f8       ??_C@_1M@PJGPPBOG@?$AAg?$AAu?$AA?9?$AAI?$AAN?$AA?$AA@ 100328f8     libcpmt:winapinls.obj
 0002:00002904       ??_C@_1M@KMKMOPHI@?$AAt?$AAa?$AA?9?$AAI?$AAN?$AA?$AA@ 10032904     libcpmt:winapinls.obj
 0002:00002910       ??_C@_1M@KFEHEPAC@?$AAt?$AAe?$AA?9?$AAI?$AAN?$AA?$AA@ 10032910     libcpmt:winapinls.obj
 0002:0000291c       ??_C@_1M@CDCLMGHI@?$AAk?$AAn?$AA?9?$AAI?$AAN?$AA?$AA@ 1003291c     libcpmt:winapinls.obj
 0002:00002928       ??_C@_1M@MIODLDKF@?$AAm?$AAl?$AA?9?$AAI?$AAN?$AA?$AA@ 10032928     libcpmt:winapinls.obj
 0002:00002934       ??_C@_1M@PBIEACPO@?$AAm?$AAr?$AA?9?$AAI?$AAN?$AA?$AA@ 10032934     libcpmt:winapinls.obj
 0002:00002940       ??_C@_1M@NIDEAGPH@?$AAs?$AAa?$AA?9?$AAI?$AAN?$AA?$AA@ 10032940     libcpmt:winapinls.obj
 0002:0000294c       ??_C@_1M@FHIHCBIO@?$AAm?$AAn?$AA?9?$AAM?$AAN?$AA?$AA@ 1003294c     libcpmt:winapinls.obj
 0002:00002958       ??_C@_1M@JAIJPENP@?$AAc?$AAy?$AA?9?$AAG?$AAB?$AA?$AA@ 10032958     libcpmt:winapinls.obj
 0002:00002964       ??_C@_1M@PHGFBEPN@?$AAg?$AAl?$AA?9?$AAE?$AAS?$AA?$AA@ 10032964     libcpmt:winapinls.obj
 0002:00002970       ??_C@_1O@KPIPDNCP@?$AAk?$AAo?$AAk?$AA?9?$AAI?$AAN?$AA?$AA@ 10032970     libcpmt:winapinls.obj
 0002:00002980       ??_C@_1O@KNHJLDJA@?$AAs?$AAy?$AAr?$AA?9?$AAS?$AAY?$AA?$AA@ 10032980     libcpmt:winapinls.obj
 0002:00002990       ??_C@_1O@MKEKBLAH@?$AAd?$AAi?$AAv?$AA?9?$AAM?$AAV?$AA?$AA@ 10032990     libcpmt:winapinls.obj
 0002:000029a0       ??_C@_1O@OHDCKDDF@?$AAq?$AAu?$AAz?$AA?9?$AAB?$AAO?$AA?$AA@ 100329a0     libcpmt:winapinls.obj
 0002:000029b0       ??_C@_1M@LEPJNLFD@?$AAn?$AAs?$AA?9?$AAZ?$AAA?$AA?$AA@ 100329b0     libcpmt:winapinls.obj
 0002:000029bc       ??_C@_1M@OMLEIIJB@?$AAm?$AAi?$AA?9?$AAN?$AAZ?$AA?$AA@ 100329bc     libcpmt:winapinls.obj
 0002:000029c8       ??_C@_1M@PMPEAILG@?$AAa?$AAr?$AA?9?$AAI?$AAQ?$AA?$AA@ 100329c8     libcpmt:winapinls.obj
 0002:000029d4       ??_C@_1M@BIBDDEMK@?$AAz?$AAh?$AA?9?$AAC?$AAN?$AA?$AA@ 100329d4     libcpmt:winapinls.obj
 0002:000029e0       ??_C@_1M@CNKPNOEE@?$AAd?$AAe?$AA?9?$AAC?$AAH?$AA?$AA@ 100329e0     libcpmt:winapinls.obj
 0002:000029ec       ??_C@_1M@LKMGMLKO@?$AAe?$AAn?$AA?9?$AAG?$AAB?$AA?$AA@ 100329ec     libcpmt:winapinls.obj
 0002:000029f8       ??_C@_1M@PGKJFFGL@?$AAe?$AAs?$AA?9?$AAM?$AAX?$AA?$AA@ 100329f8     libcpmt:winapinls.obj
 0002:00002a04       ??_C@_1M@DNNANBDC@?$AAf?$AAr?$AA?9?$AAB?$AAE?$AA?$AA@ 10032a04     libcpmt:winapinls.obj
 0002:00002a10       ??_C@_1M@HLGMDFHM@?$AAi?$AAt?$AA?9?$AAC?$AAH?$AA?$AA@ 10032a10     libcpmt:winapinls.obj
 0002:00002a1c       ??_C@_1M@CLLBGJH@?$AAn?$AAl?$AA?9?$AAB?$AAE?$AA?$AA@ 10032a1c     libcpmt:winapinls.obj
 0002:00002a28       ??_C@_1M@BODBOGLF@?$AAn?$AAn?$AA?9?$AAN?$AAO?$AA?$AA@ 10032a28     libcpmt:winapinls.obj
 0002:00002a34       ??_C@_1M@HFFAHKAD@?$AAp?$AAt?$AA?9?$AAP?$AAT?$AA?$AA@ 10032a34     libcpmt:winapinls.obj
 0002:00002a40       ??_C@_1BG@LNOAKHIE@?$AAs?$AAr?$AA?9?$AAS?$AAP?$AA?9?$AAL?$AAa?$AAt?$AAn?$AA?$AA@ 10032a40     libcpmt:winapinls.obj
 0002:00002a58       ??_C@_1M@HBMHBGAK@?$AAs?$AAv?$AA?9?$AAF?$AAI?$AA?$AA@ 10032a58     libcpmt:winapinls.obj
 0002:00002a64       ??_C@_1BG@DGCJGJBE@?$AAa?$AAz?$AA?9?$AAA?$AAZ?$AA?9?$AAC?$AAy?$AAr?$AAl?$AA?$AA@ 10032a64     libcpmt:winapinls.obj
 0002:00002a7c       ??_C@_1M@KEJDAAHB@?$AAs?$AAe?$AA?9?$AAS?$AAE?$AA?$AA@ 10032a7c     libcpmt:winapinls.obj
 0002:00002a88       ??_C@_1M@HEIBJJAD@?$AAm?$AAs?$AA?9?$AAB?$AAN?$AA?$AA@ 10032a88     libcpmt:winapinls.obj
 0002:00002a94       ??_C@_1BG@PBGJMCEM@?$AAu?$AAz?$AA?9?$AAU?$AAZ?$AA?9?$AAC?$AAy?$AAr?$AAl?$AA?$AA@ 10032a94     libcpmt:winapinls.obj
 0002:00002aac       ??_C@_1O@LAOBCMDF@?$AAq?$AAu?$AAz?$AA?9?$AAE?$AAC?$AA?$AA@ 10032aac     libcpmt:winapinls.obj
 0002:00002abc       ??_C@_1M@POEEMAIO@?$AAa?$AAr?$AA?9?$AAE?$AAG?$AA?$AA@ 10032abc     libcpmt:winapinls.obj
 0002:00002ac8       ??_C@_1M@EFAKDEDL@?$AAz?$AAh?$AA?9?$AAH?$AAK?$AA?$AA@ 10032ac8     libcpmt:winapinls.obj
 0002:00002ad4       ??_C@_1M@HKKIJHGI@?$AAd?$AAe?$AA?9?$AAA?$AAT?$AA?$AA@ 10032ad4     libcpmt:winapinls.obj
 0002:00002ae0       ??_C@_1M@KBFBEHJF@?$AAe?$AAn?$AA?9?$AAA?$AAU?$AA?$AA@ 10032ae0     libcpmt:winapinls.obj
 0002:00002aec       ??_C@_1M@MNPLFAAH@?$AAe?$AAs?$AA?9?$AAE?$AAS?$AA?$AA@ 10032aec     libcpmt:winapinls.obj
 0002:00002af8       ??_C@_1M@HJOOJFMA@?$AAf?$AAr?$AA?9?$AAC?$AAA?$AA?$AA@ 10032af8     libcpmt:winapinls.obj
 0002:00002b04       ??_C@_1BG@JPOFPNAB@?$AAs?$AAr?$AA?9?$AAS?$AAP?$AA?9?$AAC?$AAy?$AAr?$AAl?$AA?$AA@ 10032b04     libcpmt:winapinls.obj
 0002:00002b1c       ??_C@_1M@LNFOCMOB@?$AAs?$AAe?$AA?9?$AAF?$AAI?$AA?$AA@ 10032b1c     libcpmt:winapinls.obj
 0002:00002b28       ??_C@_1O@MGJBOAMB@?$AAq?$AAu?$AAz?$AA?9?$AAP?$AAE?$AA?$AA@ 10032b28     libcpmt:winapinls.obj
 0002:00002b38       ??_C@_1M@GJINLBOK@?$AAa?$AAr?$AA?9?$AAL?$AAY?$AA?$AA@ 10032b38     libcpmt:winapinls.obj
 0002:00002b44       ??_C@_1M@GGMNHJNL@?$AAz?$AAh?$AA?9?$AAS?$AAG?$AA?$AA@ 10032b44     libcpmt:winapinls.obj
 0002:00002b50       ??_C@_1M@HOIKODND@?$AAd?$AAe?$AA?9?$AAL?$AAU?$AA?$AA@ 10032b50     libcpmt:winapinls.obj
 0002:00002b5c       ??_C@_1M@DDOCCGFG@?$AAe?$AAn?$AA?9?$AAC?$AAA?$AA?$AA@ 10032b5c     libcpmt:winapinls.obj
 0002:00002b68       ??_C@_1M@BNOEMJLF@?$AAe?$AAs?$AA?9?$AAG?$AAT?$AA?$AA@ 10032b68     libcpmt:winapinls.obj
 0002:00002b74       ??_C@_1M@EOGNKEK@?$AAf?$AAr?$AA?9?$AAC?$AAH?$AA?$AA@ 10032b74     libcpmt:winapinls.obj
 0002:00002b80       ??_C@_1M@FLIDJFHL@?$AAh?$AAr?$AA?9?$AAB?$AAA?$AA?$AA@ 10032b80     libcpmt:winapinls.obj
 0002:00002b8c       ??_C@_1O@FMCELNAJ@?$AAs?$AAm?$AAj?$AA?9?$AAN?$AAO?$AA?$AA@ 10032b8c     libcpmt:winapinls.obj
 0002:00002b9c       ??_C@_1M@JHGLJMGJ@?$AAa?$AAr?$AA?9?$AAD?$AAZ?$AA?$AA@ 10032b9c     libcpmt:winapinls.obj
 0002:00002ba8       ??_C@_1M@JKKFDCNP@?$AAz?$AAh?$AA?9?$AAM?$AAO?$AA?$AA@ 10032ba8     libcpmt:winapinls.obj
 0002:00002bb4       ??_C@_1M@GEEFALPE@?$AAd?$AAe?$AA?9?$AAL?$AAI?$AA?$AA@ 10032bb4     libcpmt:winapinls.obj
 0002:00002bc0       ??_C@_1M@IGEOFBG@?$AAe?$AAn?$AA?9?$AAN?$AAZ?$AA?$AA@ 10032bc0     libcpmt:winapinls.obj
 0002:00002bcc       ??_C@_1M@KDBONEHP@?$AAe?$AAs?$AA?9?$AAC?$AAR?$AA?$AA@ 10032bcc     libcpmt:winapinls.obj
 0002:00002bd8       ??_C@_1M@FHMDOHNN@?$AAf?$AAr?$AA?9?$AAL?$AAU?$AA?$AA@ 10032bd8     libcpmt:winapinls.obj
 0002:00002be4       ??_C@_1BG@NFKKMAFG@?$AAb?$AAs?$AA?9?$AAB?$AAA?$AA?9?$AAL?$AAa?$AAt?$AAn?$AA?$AA@ 10032be4     libcpmt:winapinls.obj
 0002:00002bfc       ??_C@_1O@IMNBEMCI@?$AAs?$AAm?$AAj?$AA?9?$AAS?$AAE?$AA?$AA@ 10032bfc     libcpmt:winapinls.obj
 0002:00002c0c       ??_C@_1M@DHHMBNDP@?$AAa?$AAr?$AA?9?$AAM?$AAA?$AA?$AA@ 10032c0c     libcpmt:winapinls.obj
 0002:00002c18       ??_C@_1M@BNBLJCGH@?$AAe?$AAn?$AA?9?$AAI?$AAE?$AA?$AA@ 10032c18     libcpmt:winapinls.obj
 0002:00002c24       ??_C@_1M@GEPAFMDL@?$AAe?$AAs?$AA?9?$AAP?$AAA?$AA?$AA@ 10032c24     libcpmt:winapinls.obj
 0002:00002c30       ??_C@_1M@OJONDMDL@?$AAf?$AAr?$AA?9?$AAM?$AAC?$AA?$AA@ 10032c30     libcpmt:winapinls.obj
 0002:00002c3c       ??_C@_1BG@OBCNFJB@?$AAs?$AAr?$AA?9?$AAB?$AAA?$AA?9?$AAL?$AAa?$AAt?$AAn?$AA?$AA@ 10032c3c     libcpmt:winapinls.obj
 0002:00002c54       ??_C@_1O@KEMEEGPO@?$AAs?$AAm?$AAa?$AA?9?$AAN?$AAO?$AA?$AA@ 10032c54     libcpmt:winapinls.obj
 0002:00002c64       ??_C@_1M@ELMGFODK@?$AAa?$AAr?$AA?9?$AAT?$AAN?$AA?$AA@ 10032c64     libcpmt:winapinls.obj
 0002:00002c70       ??_C@_1M@BHDLHFAF@?$AAe?$AAn?$AA?9?$AAZ?$AAA?$AA?$AA@ 10032c70     libcpmt:winapinls.obj
 0002:00002c7c       ??_C@_1M@BMGIGLIF@?$AAe?$AAs?$AA?9?$AAD?$AAO?$AA?$AA@ 10032c7c     libcpmt:winapinls.obj
 0002:00002c88       ??_C@_1BG@CMBHIPBE@?$AAs?$AAr?$AA?9?$AAB?$AAA?$AA?9?$AAC?$AAy?$AAr?$AAl?$AA?$AA@ 10032c88     libcpmt:winapinls.obj
 0002:00002ca0       ??_C@_1O@HEDBLHNP@?$AAs?$AAm?$AAa?$AA?9?$AAS?$AAE?$AA?$AA@ 10032ca0     libcpmt:winapinls.obj
 0002:00002cb0       ??_C@_1M@DAGCADIM@?$AAa?$AAr?$AA?9?$AAO?$AAM?$AA?$AA@ 10032cb0     libcpmt:winapinls.obj
 0002:00002cbc       ??_C@_1M@FODLMICG@?$AAe?$AAn?$AA?9?$AAJ?$AAM?$AA?$AA@ 10032cbc     libcpmt:winapinls.obj
 0002:00002cc8       ??_C@_1M@DNMLCIHB@?$AAe?$AAs?$AA?9?$AAV?$AAE?$AA?$AA@ 10032cc8     libcpmt:winapinls.obj
 0002:00002cd4       ??_C@_1O@EOKHMKJK@?$AAs?$AAm?$AAs?$AA?9?$AAF?$AAI?$AA?$AA@ 10032cd4     libcpmt:winapinls.obj
 0002:00002ce4       ??_C@_1M@CAFJMKOF@?$AAa?$AAr?$AA?9?$AAY?$AAE?$AA?$AA@ 10032ce4     libcpmt:winapinls.obj
 0002:00002cf0       ??_C@_1M@CBFHIJLI@?$AAe?$AAn?$AA?9?$AAC?$AAB?$AA?$AA@ 10032cf0     libcpmt:winapinls.obj
 0002:00002cfc       ??_C@_1M@BGNFLDN@?$AAe?$AAs?$AA?9?$AAC?$AAO?$AA?$AA@ 10032cfc     libcpmt:winapinls.obj
 0002:00002d08       ??_C@_1O@JMPHMAMC@?$AAs?$AAm?$AAn?$AA?9?$AAF?$AAI?$AA?$AA@ 10032d08     libcpmt:winapinls.obj
 0002:00002d18       ??_C@_1M@JLANABKE@?$AAa?$AAr?$AA?9?$AAS?$AAY?$AA?$AA@ 10032d18     libcpmt:winapinls.obj
 0002:00002d24       ??_C@_1M@HPKGCFGN@?$AAe?$AAn?$AA?9?$AAB?$AAZ?$AA?$AA@ 10032d24     libcpmt:winapinls.obj
 0002:00002d30       ??_C@_1M@OLJCMLGM@?$AAe?$AAs?$AA?9?$AAP?$AAE?$AA?$AA@ 10032d30     libcpmt:winapinls.obj
 0002:00002d3c       ??_C@_1M@MKKGFKLE@?$AAa?$AAr?$AA?9?$AAJ?$AAO?$AA?$AA@ 10032d3c     libcpmt:winapinls.obj
 0002:00002d48       ??_C@_1M@EKPGLDNI@?$AAe?$AAn?$AA?9?$AAT?$AAT?$AA?$AA@ 10032d48     libcpmt:winapinls.obj
 0002:00002d54       ??_C@_1M@OONGHFHE@?$AAe?$AAs?$AA?9?$AAA?$AAR?$AA?$AA@ 10032d54     libcpmt:winapinls.obj
 0002:00002d60       ??_C@_1M@OOJFGBHE@?$AAa?$AAr?$AA?9?$AAL?$AAB?$AA?$AA@ 10032d60     libcpmt:winapinls.obj
 0002:00002d6c       ??_C@_1M@GCEJHNEG@?$AAe?$AAn?$AA?9?$AAZ?$AAW?$AA?$AA@ 10032d6c     libcpmt:winapinls.obj
 0002:00002d78       ??_C@_1M@JNOCAHJI@?$AAe?$AAs?$AA?9?$AAE?$AAC?$AA?$AA@ 10032d78     libcpmt:winapinls.obj
 0002:00002d84       ??_C@_1M@JEFHPGGB@?$AAa?$AAr?$AA?9?$AAK?$AAW?$AA?$AA@ 10032d84     libcpmt:winapinls.obj
 0002:00002d90       ??_C@_1M@MLKIBJOJ@?$AAe?$AAn?$AA?9?$AAP?$AAH?$AA?$AA@ 10032d90     libcpmt:winapinls.obj
 0002:00002d9c       ??_C@_1M@BDNIPEND@?$AAe?$AAs?$AA?9?$AAC?$AAL?$AA?$AA@ 10032d9c     libcpmt:winapinls.obj
 0002:00002da8       ??_C@_1M@MPNMEKBD@?$AAa?$AAr?$AA?9?$AAA?$AAE?$AA?$AA@ 10032da8     libcpmt:winapinls.obj
 0002:00002db4       ??_C@_1M@KBJALCPI@?$AAe?$AAs?$AA?9?$AAU?$AAY?$AA?$AA@ 10032db4     libcpmt:winapinls.obj
 0002:00002dc0       ??_C@_1M@LLCCOAGA@?$AAa?$AAr?$AA?9?$AAB?$AAH?$AA?$AA@ 10032dc0     libcpmt:winapinls.obj
 0002:00002dcc       ??_C@_1M@PBFNCDEL@?$AAe?$AAs?$AA?9?$AAP?$AAY?$AA?$AA@ 10032dcc     libcpmt:winapinls.obj
 0002:00002dd8       ??_C@_1M@EDGINPNP@?$AAa?$AAr?$AA?9?$AAQ?$AAA?$AA?$AA@ 10032dd8     libcpmt:winapinls.obj
 0002:00002de4       ??_C@_1M@MKDBIIJI@?$AAe?$AAs?$AA?9?$AAB?$AAO?$AA?$AA@ 10032de4     libcpmt:winapinls.obj
 0002:00002df0       ??_C@_1M@CPKKEBLD@?$AAe?$AAs?$AA?9?$AAS?$AAV?$AA?$AA@ 10032df0     libcpmt:winapinls.obj
 0002:00002dfc       ??_C@_1M@NDBGMMJL@?$AAe?$AAs?$AA?9?$AAH?$AAN?$AA?$AA@ 10032dfc     libcpmt:winapinls.obj
 0002:00002e08       ??_C@_1M@JIJIBHDP@?$AAe?$AAs?$AA?9?$AAN?$AAI?$AA?$AA@ 10032e08     libcpmt:winapinls.obj
 0002:00002e14       ??_C@_1M@CGFMKEEK@?$AAe?$AAs?$AA?9?$AAP?$AAR?$AA?$AA@ 10032e14     libcpmt:winapinls.obj
 0002:00002e20       ??_C@_1O@ICJHKIIK@?$AAz?$AAh?$AA?9?$AAC?$AAH?$AAT?$AA?$AA@ 10032e20     libcpmt:winapinls.obj
 0002:00002e30       ??_C@_15CLNEJCE@?$AAs?$AAr?$AA?$AA@ 10032e30     libcpmt:winapinls.obj
 0002:00002e38       ??_C@_1M@KAHEKEIG@?$AAa?$AAf?$AA?9?$AAz?$AAa?$AA?$AA@ 10032e38     libcpmt:winapinls.obj
 0002:00002e44       ??_C@_1M@GIECOABL@?$AAa?$AAr?$AA?9?$AAa?$AAe?$AA?$AA@ 10032e44     libcpmt:winapinls.obj
 0002:00002e50       ??_C@_1M@BMLMEKGI@?$AAa?$AAr?$AA?9?$AAb?$AAh?$AA?$AA@ 10032e50     libcpmt:winapinls.obj
 0002:00002e5c       ??_C@_1M@DAPFDGGB@?$AAa?$AAr?$AA?9?$AAd?$AAz?$AA?$AA@ 10032e5c     libcpmt:winapinls.obj
 0002:00002e68       ??_C@_1M@FJNKGKIG@?$AAa?$AAr?$AA?9?$AAe?$AAg?$AA?$AA@ 10032e68     libcpmt:winapinls.obj
 0002:00002e74       ??_C@_1M@FLGKKCLO@?$AAa?$AAr?$AA?9?$AAi?$AAq?$AA?$AA@ 10032e74     libcpmt:winapinls.obj
 0002:00002e80       ??_C@_1M@GNDIPALM@?$AAa?$AAr?$AA?9?$AAj?$AAo?$AA?$AA@ 10032e80     libcpmt:winapinls.obj
 0002:00002e8c       ??_C@_1M@DDMJFMGJ@?$AAa?$AAr?$AA?9?$AAk?$AAw?$AA?$AA@ 10032e8c     libcpmt:winapinls.obj
 0002:00002e98       ??_C@_1M@EJALMLHM@?$AAa?$AAr?$AA?9?$AAl?$AAb?$AA?$AA@ 10032e98     libcpmt:winapinls.obj
 0002:00002ea4       ??_C@_1M@MOBDBLOC@?$AAa?$AAr?$AA?9?$AAl?$AAy?$AA?$AA@ 10032ea4     libcpmt:winapinls.obj
 0002:00002eb0       ??_C@_1M@JAOCLHDH@?$AAa?$AAr?$AA?9?$AAm?$AAa?$AA?$AA@ 10032eb0     libcpmt:winapinls.obj
 0002:00002ebc       ??_C@_1M@JHPMKJIE@?$AAa?$AAr?$AA?9?$AAo?$AAm?$AA?$AA@ 10032ebc     libcpmt:winapinls.obj
 0002:00002ec8       ??_C@_1M@OEPGHFNH@?$AAa?$AAr?$AA?9?$AAq?$AAa?$AA?$AA@ 10032ec8     libcpmt:winapinls.obj
 0002:00002ed4       ??_C@_1M@KJDONENM@?$AAa?$AAr?$AA?9?$AAs?$AAa?$AA?$AA@ 10032ed4     libcpmt:winapinls.obj
 0002:00002ee0       ??_C@_1M@DMJDKLKM@?$AAa?$AAr?$AA?9?$AAs?$AAy?$AA?$AA@ 10032ee0     libcpmt:winapinls.obj
 0002:00002eec       ??_C@_1M@OMFIPEDC@?$AAa?$AAr?$AA?9?$AAt?$AAn?$AA?$AA@ 10032eec     libcpmt:winapinls.obj
 0002:00002ef8       ??_C@_1M@IHMHGAON@?$AAa?$AAr?$AA?9?$AAy?$AAe?$AA?$AA@ 10032ef8     libcpmt:winapinls.obj
 0002:00002f04       ??_C@_1BG@KDCPGJGB@?$AAa?$AAz?$AA?9?$AAa?$AAz?$AA?9?$AAc?$AAy?$AAr?$AAl?$AA?$AA@ 10032f04     libcpmt:winapinls.obj
 0002:00002f1c       ??_C@_1BG@IBCKDDOE@?$AAa?$AAz?$AA?9?$AAa?$AAz?$AA?9?$AAl?$AAa?$AAt?$AAn?$AA?$AA@ 10032f1c     libcpmt:winapinls.obj
 0002:00002f34       ??_C@_1M@EGPFDCPD@?$AAb?$AAe?$AA?9?$AAb?$AAy?$AA?$AA@ 10032f34     libcpmt:winapinls.obj
 0002:00002f40       ??_C@_1M@PCMGMCGC@?$AAb?$AAg?$AA?9?$AAb?$AAg?$AA?$AA@ 10032f40     libcpmt:winapinls.obj
 0002:00002f4c       ??_C@_1M@BJBMFGOB@?$AAb?$AAn?$AA?9?$AAi?$AAn?$AA?$AA@ 10032f4c     libcpmt:winapinls.obj
 0002:00002f58       ??_C@_1BG@EAKMMACD@?$AAb?$AAs?$AA?9?$AAb?$AAa?$AA?9?$AAl?$AAa?$AAt?$AAn?$AA?$AA@ 10032f58     libcpmt:winapinls.obj
 0002:00002f70       ??_C@_1M@KGADAODK@?$AAc?$AAa?$AA?9?$AAe?$AAs?$AA?$AA@ 10032f70     libcpmt:winapinls.obj
 0002:00002f7c       ??_C@_1M@COAJPDHI@?$AAc?$AAs?$AA?9?$AAc?$AAz?$AA?$AA@ 10032f7c     libcpmt:winapinls.obj
 0002:00002f88       ??_C@_1M@DHBHFONH@?$AAc?$AAy?$AA?9?$AAg?$AAb?$AA?$AA@ 10032f88     libcpmt:winapinls.obj
 0002:00002f94       ??_C@_1M@IMGKELGA@?$AAd?$AAa?$AA?9?$AAd?$AAk?$AA?$AA@ 10032f94     libcpmt:winapinls.obj
 0002:00002fa0       ??_C@_1M@NNDGDNGA@?$AAd?$AAe?$AA?9?$AAa?$AAt?$AA?$AA@ 10032fa0     libcpmt:winapinls.obj
 0002:00002fac       ??_C@_1M@IKDBHEEM@?$AAd?$AAe?$AA?9?$AAc?$AAh?$AA?$AA@ 10032fac     libcpmt:winapinls.obj
 0002:00002fb8       ??_C@_1M@GFFOJMCJ@?$AAd?$AAe?$AA?9?$AAd?$AAe?$AA?$AA@ 10032fb8     libcpmt:winapinls.obj
 0002:00002fc4       ??_C@_1M@MDNLKBPM@?$AAd?$AAe?$AA?9?$AAl?$AAi?$AA?$AA@ 10032fc4     libcpmt:winapinls.obj
 0002:00002fd0       ??_C@_1M@NJBEEJNL@?$AAd?$AAe?$AA?9?$AAl?$AAu?$AA?$AA@ 10032fd0     libcpmt:winapinls.obj
 0002:00002fdc       ??_C@_1O@GNNELBAP@?$AAd?$AAi?$AAv?$AA?9?$AAm?$AAv?$AA?$AA@ 10032fdc     libcpmt:winapinls.obj
 0002:00002fec       ??_C@_1M@EJLEOGAE@?$AAe?$AAl?$AA?9?$AAg?$AAr?$AA?$AA@ 10032fec     libcpmt:winapinls.obj
 0002:00002ff8       ??_C@_1M@GMPONJN@?$AAe?$AAn?$AA?9?$AAa?$AAu?$AA?$AA@ 10032ff8     libcpmt:winapinls.obj
 0002:00003004       ??_C@_1M@NIDIIPGF@?$AAe?$AAn?$AA?9?$AAb?$AAz?$AA?$AA@ 10033004     libcpmt:winapinls.obj
 0002:00003010       ??_C@_1M@JEHMIMFO@?$AAe?$AAn?$AA?9?$AAc?$AAa?$AA?$AA@ 10033010     libcpmt:winapinls.obj
 0002:0000301c       ??_C@_1M@IGMJCDLA@?$AAe?$AAn?$AA?9?$AAc?$AAb?$AA?$AA@ 1003301c     libcpmt:winapinls.obj
 0002:00003028       ??_C@_1M@BNFIGBKG@?$AAe?$AAn?$AA?9?$AAg?$AAb?$AA?$AA@ 10033028     libcpmt:winapinls.obj
 0002:00003034       ??_C@_1M@LKIFDIGP@?$AAe?$AAn?$AA?9?$AAi?$AAe?$AA?$AA@ 10033034     libcpmt:winapinls.obj
 0002:00003040       ??_C@_1M@PJKFGCCO@?$AAe?$AAn?$AA?9?$AAj?$AAm?$AA?$AA@ 10033040     libcpmt:winapinls.obj
 0002:0000304c       ??_C@_1M@KPPKEPBO@?$AAe?$AAn?$AA?9?$AAn?$AAz?$AA?$AA@ 1003304c     libcpmt:winapinls.obj
 0002:00003058       ??_C@_1M@GMDGLDOB@?$AAe?$AAn?$AA?9?$AAp?$AAh?$AA?$AA@ 10033058     libcpmt:winapinls.obj
 0002:00003064       ??_C@_1M@ONGIBJNA@?$AAe?$AAn?$AA?9?$AAt?$AAt?$AA?$AA@ 10033064     libcpmt:winapinls.obj
 0002:00003070       ??_C@_1M@LLODPCMM@?$AAe?$AAn?$AA?9?$AAu?$AAs?$AA?$AA@ 10033070     libcpmt:winapinls.obj
 0002:0000307c       ??_C@_1M@LAKFNPAN@?$AAe?$AAn?$AA?9?$AAz?$AAa?$AA?$AA@ 1003307c     libcpmt:winapinls.obj
 0002:00003088       ??_C@_1M@MFNHNHEO@?$AAe?$AAn?$AA?9?$AAz?$AAw?$AA?$AA@ 10033088     libcpmt:winapinls.obj
 0002:00003094       ??_C@_1M@EJEINPHM@?$AAe?$AAs?$AA?9?$AAa?$AAr?$AA?$AA@ 10033094     libcpmt:winapinls.obj
 0002:000030a0       ??_C@_1M@GNKPCCJA@?$AAe?$AAs?$AA?9?$AAb?$AAo?$AA?$AA@ 100330a0     libcpmt:winapinls.obj
 0002:000030ac       ??_C@_1M@LEEGFONL@?$AAe?$AAs?$AA?9?$AAc?$AAl?$AA?$AA@ 100330ac     libcpmt:winapinls.obj
 0002:000030b8       ??_C@_1M@KGPDPBDF@?$AAe?$AAs?$AA?9?$AAc?$AAo?$AA?$AA@ 100330b8     libcpmt:winapinls.obj
 0002:000030c4       ??_C@_1M@EIAHOHH@?$AAe?$AAs?$AA?9?$AAc?$AAr?$AA?$AA@ 100330c4     libcpmt:winapinls.obj
 0002:000030d0       ??_C@_1M@LLPGMBIN@?$AAe?$AAs?$AA?9?$AAd?$AAo?$AA?$AA@ 100330d0     libcpmt:winapinls.obj
 0002:000030dc       ??_C@_1M@DKHMKNJA@?$AAe?$AAs?$AA?9?$AAe?$AAc?$AA?$AA@ 100330dc     libcpmt:winapinls.obj
 0002:000030e8       ??_C@_1M@GKGFPKAP@?$AAe?$AAs?$AA?9?$AAe?$AAs?$AA?$AA@ 100330e8     libcpmt:winapinls.obj
 0002:000030f4       ??_C@_1M@LKHKGDLN@?$AAe?$AAs?$AA?9?$AAg?$AAt?$AA?$AA@ 100330f4     libcpmt:winapinls.obj
 0002:00003100       ??_C@_1M@HEIIGGJD@?$AAe?$AAs?$AA?9?$AAh?$AAn?$AA?$AA@ 10033100     libcpmt:winapinls.obj
 0002:0000310c       ??_C@_1M@FBDHPPGD@?$AAe?$AAs?$AA?9?$AAm?$AAx?$AA?$AA@ 1003310c     libcpmt:winapinls.obj
 0002:00003118       ??_C@_1M@DPAGLNDH@?$AAe?$AAs?$AA?9?$AAn?$AAi?$AA?$AA@ 10033118     libcpmt:winapinls.obj
 0002:00003124       ??_C@_1M@MDGOPGDD@?$AAe?$AAs?$AA?9?$AAp?$AAa?$AA?$AA@ 10033124     libcpmt:winapinls.obj
 0002:00003130       ??_C@_1M@EMAMGBGE@?$AAe?$AAs?$AA?9?$AAp?$AAe?$AA?$AA@ 10033130     libcpmt:winapinls.obj
 0002:0000313c       ??_C@_1M@IBMCAOEC@?$AAe?$AAs?$AA?9?$AAp?$AAr?$AA?$AA@ 1003313c     libcpmt:winapinls.obj
 0002:00003148       ??_C@_1M@FGMDIJED@?$AAe?$AAs?$AA?9?$AAp?$AAy?$AA?$AA@ 10033148     libcpmt:winapinls.obj
 0002:00003154       ??_C@_1M@IIDEOLLL@?$AAe?$AAs?$AA?9?$AAs?$AAv?$AA?$AA@ 10033154     libcpmt:winapinls.obj
 0002:00003160       ??_C@_1M@GAOBIPA@?$AAe?$AAs?$AA?9?$AAu?$AAy?$AA?$AA@ 10033160     libcpmt:winapinls.obj
 0002:0000316c       ??_C@_1M@JKFFICHJ@?$AAe?$AAs?$AA?9?$AAv?$AAe?$AA?$AA@ 1003316c     libcpmt:winapinls.obj
 0002:00003178       ??_C@_1M@PNMLOJDF@?$AAe?$AAt?$AA?9?$AAe?$AAe?$AA?$AA@ 10033178     libcpmt:winapinls.obj
 0002:00003184       ??_C@_1M@GHHLIKEI@?$AAe?$AAu?$AA?9?$AAe?$AAs?$AA?$AA@ 10033184     libcpmt:winapinls.obj
 0002:00003190       ??_C@_1M@PBNONODE@?$AAf?$AAa?$AA?9?$AAi?$AAr?$AA?$AA@ 10033190     libcpmt:winapinls.obj
 0002:0000319c       ??_C@_1M@JEEHPMIL@?$AAf?$AAi?$AA?9?$AAf?$AAi?$AA?$AA@ 1003319c     libcpmt:winapinls.obj
 0002:000031a8       ??_C@_1M@LMDCNDBA@?$AAf?$AAo?$AA?9?$AAf?$AAo?$AA?$AA@ 100331a8     libcpmt:winapinls.obj
 0002:000031b4       ??_C@_1M@JKEOHLDK@?$AAf?$AAr?$AA?9?$AAb?$AAe?$AA?$AA@ 100331b4     libcpmt:winapinls.obj
 0002:000031c0       ??_C@_1M@NOHADPMI@?$AAf?$AAr?$AA?9?$AAc?$AAa?$AA?$AA@ 100331c0     libcpmt:winapinls.obj
 0002:000031cc       ??_C@_1M@KDHIHAEC@?$AAf?$AAr?$AA?9?$AAc?$AAh?$AA?$AA@ 100331cc     libcpmt:winapinls.obj
 0002:000031d8       ??_C@_1M@MMBBFGAK@?$AAf?$AAr?$AA?9?$AAf?$AAr?$AA?$AA@ 100331d8     libcpmt:winapinls.obj
 0002:000031e4       ??_C@_1M@PAFNENNF@?$AAf?$AAr?$AA?9?$AAl?$AAu?$AA?$AA@ 100331e4     libcpmt:winapinls.obj
 0002:000031f0       ??_C@_1M@EOHDJGDD@?$AAf?$AAr?$AA?9?$AAm?$AAc?$AA?$AA@ 100331f0     libcpmt:winapinls.obj
 0002:000031fc       ??_C@_1M@FAPLLOPF@?$AAg?$AAl?$AA?9?$AAe?$AAs?$AA?$AA@ 100331fc     libcpmt:winapinls.obj
 0002:00003208       ??_C@_1M@FOPBFLOO@?$AAg?$AAu?$AA?9?$AAi?$AAn?$AA?$AA@ 10033208     libcpmt:winapinls.obj
 0002:00003214       ??_C@_1M@KBMCINPM@?$AAh?$AAe?$AA?9?$AAi?$AAl?$AA?$AA@ 10033214     libcpmt:winapinls.obj
 0002:00003220       ??_C@_1M@BBPHKFPJ@?$AAh?$AAi?$AA?9?$AAi?$AAn?$AA?$AA@ 10033220     libcpmt:winapinls.obj
 0002:0000322c       ??_C@_1M@PMBNDPHD@?$AAh?$AAr?$AA?9?$AAb?$AAa?$AA?$AA@ 1003322c     libcpmt:winapinls.obj
 0002:00003238       ??_C@_1M@BPCKOEGE@?$AAh?$AAr?$AA?9?$AAh?$AAr?$AA?$AA@ 10033238     libcpmt:winapinls.obj
 0002:00003244       ??_C@_1M@GACBMHKE@?$AAh?$AAu?$AA?9?$AAh?$AAu?$AA?$AA@ 10033244     libcpmt:winapinls.obj
 0002:00003250       ??_C@_1M@MILPAJJC@?$AAh?$AAy?$AA?9?$AAa?$AAm?$AA?$AA@ 10033250     libcpmt:winapinls.obj
 0002:0000325c       ??_C@_1M@BABBICEC@?$AAi?$AAd?$AA?9?$AAi?$AAd?$AA?$AA@ 1003325c     libcpmt:winapinls.obj
 0002:00003268       ??_C@_1M@BIKNHHPF@?$AAi?$AAs?$AA?9?$AAi?$AAs?$AA?$AA@ 10033268     libcpmt:winapinls.obj
 0002:00003274       ??_C@_1M@NMPCJPHE@?$AAi?$AAt?$AA?9?$AAc?$AAh?$AA?$AA@ 10033274     libcpmt:winapinls.obj
 0002:00003280       ??_C@_1M@GHKGFEDF@?$AAi?$AAt?$AA?9?$AAi?$AAt?$AA?$AA@ 10033280     libcpmt:winapinls.obj
 0002:0000328c       ??_C@_1M@NIEJCJJA@?$AAj?$AAa?$AA?9?$AAj?$AAp?$AA?$AA@ 1003328c     libcpmt:winapinls.obj
 0002:00003298       ??_C@_1M@JILFNBIM@?$AAk?$AAa?$AA?9?$AAg?$AAe?$AA?$AA@ 10033298     libcpmt:winapinls.obj
 0002:000032a4       ??_C@_1M@PACPMGPH@?$AAk?$AAk?$AA?9?$AAk?$AAz?$AA?$AA@ 100332a4     libcpmt:winapinls.obj
 0002:000032b0       ??_C@_1M@IELFGMHA@?$AAk?$AAn?$AA?9?$AAi?$AAn?$AA?$AA@ 100332b0     libcpmt:winapinls.obj
 0002:000032bc       ??_C@_1M@DMHAEOGC@?$AAk?$AAo?$AA?9?$AAk?$AAr?$AA?$AA@ 100332bc     libcpmt:winapinls.obj
 0002:000032c8       ??_C@_1O@IBBJHCH@?$AAk?$AAo?$AAk?$AA?9?$AAi?$AAn?$AA?$AA@ 100332c8     libcpmt:winapinls.obj
 0002:000032d8       ??_C@_1M@HBAHBIGA@?$AAk?$AAy?$AA?9?$AAk?$AAg?$AA?$AA@ 100332d8     libcpmt:winapinls.obj
 0002:000032e4       ??_C@_1M@KPMILCJG@?$AAl?$AAt?$AA?9?$AAl?$AAt?$AA?$AA@ 100332e4     libcpmt:winapinls.obj
 0002:000032f0       ??_C@_1M@BDEKKCA@?$AAl?$AAv?$AA?9?$AAl?$AAv?$AA?$AA@ 100332f0     libcpmt:winapinls.obj
 0002:000032fc       ??_C@_1M@ELCKCCJJ@?$AAm?$AAi?$AA?9?$AAn?$AAz?$AA?$AA@ 100332fc     libcpmt:winapinls.obj
 0002:00003308       ??_C@_1M@CBOOLAPA@?$AAm?$AAk?$AA?9?$AAm?$AAk?$AA?$AA@ 10033308     libcpmt:winapinls.obj
 0002:00003314       ??_C@_1M@GPHNBJKN@?$AAm?$AAl?$AA?9?$AAi?$AAn?$AA?$AA@ 10033314     libcpmt:winapinls.obj
 0002:00003320       ??_C@_1M@PABJILIG@?$AAm?$AAn?$AA?9?$AAm?$AAn?$AA?$AA@ 10033320     libcpmt:winapinls.obj
 0002:0000332c       ??_C@_1M@FGBKKIPG@?$AAm?$AAr?$AA?9?$AAi?$AAn?$AA?$AA@ 1003332c     libcpmt:winapinls.obj
 0002:00003338       ??_C@_1M@NDBPDDAL@?$AAm?$AAs?$AA?9?$AAb?$AAn?$AA?$AA@ 10033338     libcpmt:winapinls.obj
 0002:00003344       ??_C@_1M@OPIHOOPI@?$AAm?$AAs?$AA?9?$AAm?$AAy?$AA?$AA@ 10033344     libcpmt:winapinls.obj
 0002:00003350       ??_C@_1M@PPDBCNFM@?$AAm?$AAt?$AA?9?$AAm?$AAt?$AA?$AA@ 10033350     libcpmt:winapinls.obj
 0002:0000335c       ??_C@_1M@KDJDKMDD@?$AAn?$AAb?$AA?9?$AAn?$AAo?$AA?$AA@ 1003335c     libcpmt:winapinls.obj
 0002:00003368       ??_C@_1M@KFCFLMJP@?$AAn?$AAl?$AA?9?$AAb?$AAe?$AA?$AA@ 10033368     libcpmt:winapinls.obj
 0002:00003374       ??_C@_1M@KPOPDDGO@?$AAn?$AAl?$AA?9?$AAn?$AAl?$AA?$AA@ 10033374     libcpmt:winapinls.obj
 0002:00003380       ??_C@_1M@LJKPEMLN@?$AAn?$AAn?$AA?9?$AAn?$AAo?$AA?$AA@ 10033380     libcpmt:winapinls.obj
 0002:0000338c       ??_C@_1M@BDGHHBFL@?$AAn?$AAs?$AA?9?$AAz?$AAa?$AA?$AA@ 1003338c     libcpmt:winapinls.obj
 0002:00003398       ??_C@_1M@IDEHOAP@?$AAp?$AAa?$AA?9?$AAi?$AAn?$AA?$AA@ 10033398     libcpmt:winapinls.obj
 0002:000033a4       ??_C@_1M@HDBKGOGH@?$AAp?$AAl?$AA?9?$AAp?$AAl?$AA?$AA@ 100333a4     libcpmt:winapinls.obj
 0002:000033b0       ??_C@_1M@LJLLCMEH@?$AAp?$AAt?$AA?9?$AAb?$AAr?$AA?$AA@ 100333b0     libcpmt:winapinls.obj
 0002:000033bc       ??_C@_1M@NCMONAAL@?$AAp?$AAt?$AA?9?$AAp?$AAt?$AA?$AA@ 100333bc     libcpmt:winapinls.obj
 0002:000033c8       ??_C@_1O@EAKMAJDN@?$AAq?$AAu?$AAz?$AA?9?$AAb?$AAo?$AA?$AA@ 100333c8     libcpmt:winapinls.obj
 0002:000033d8       ??_C@_1O@BHHPIGDN@?$AAq?$AAu?$AAz?$AA?9?$AAe?$AAc?$AA?$AA@ 100333d8     libcpmt:winapinls.obj
 0002:000033e8       ??_C@_1O@GBAPEKMJ@?$AAq?$AAu?$AAz?$AA?9?$AAp?$AAe?$AA?$AA@ 100333e8     libcpmt:winapinls.obj
 0002:000033f8       ??_C@_1M@CLGLEFBO@?$AAr?$AAo?$AA?9?$AAr?$AAo?$AA?$AA@ 100333f8     libcpmt:winapinls.obj
 0002:00003404       ??_C@_1M@CEEDODME@?$AAr?$AAu?$AA?9?$AAr?$AAu?$AA?$AA@ 10033404     libcpmt:winapinls.obj
 0002:00003410       ??_C@_1M@HPKKKMPP@?$AAs?$AAa?$AA?9?$AAi?$AAn?$AA?$AA@ 10033410     libcpmt:winapinls.obj
 0002:0000341c       ??_C@_1M@BKMAIGOJ@?$AAs?$AAe?$AA?9?$AAf?$AAi?$AA?$AA@ 1003341c     libcpmt:winapinls.obj
 0002:00003428       ??_C@_1M@NDPIFLFI@?$AAs?$AAe?$AA?9?$AAn?$AAo?$AA?$AA@ 10033428     libcpmt:winapinls.obj
 0002:00003434       ??_C@_1M@DANKKHJ@?$AAs?$AAe?$AA?9?$AAs?$AAe?$AA?$AA@ 10033434     libcpmt:winapinls.obj
 0002:00003440       ??_C@_1M@PNBLONPJ@?$AAs?$AAk?$AA?9?$AAs?$AAk?$AA?$AA@ 10033440     libcpmt:winapinls.obj
 0002:0000344c       ??_C@_1M@LFMODOAL@?$AAs?$AAl?$AA?9?$AAs?$AAi?$AA?$AA@ 1003344c     libcpmt:winapinls.obj
 0002:00003458       ??_C@_1O@DFKOMPG@?$AAs?$AAm?$AAa?$AA?9?$AAn?$AAo?$AA?$AA@ 10033458     libcpmt:winapinls.obj
 0002:00003468       ??_C@_1O@NDKPBNNH@?$AAs?$AAm?$AAa?$AA?9?$AAs?$AAe?$AA?$AA@ 10033468     libcpmt:winapinls.obj
 0002:00003478       ??_C@_1O@PLLKBHAB@?$AAs?$AAm?$AAj?$AA?9?$AAn?$AAo?$AA?$AA@ 10033478     libcpmt:winapinls.obj
 0002:00003488       ??_C@_1O@CLEPOGCA@?$AAs?$AAm?$AAj?$AA?9?$AAs?$AAe?$AA?$AA@ 10033488     libcpmt:winapinls.obj
 0002:00003498       ??_C@_1O@DLGJGKMK@?$AAs?$AAm?$AAn?$AA?9?$AAf?$AAi?$AA?$AA@ 10033498     libcpmt:winapinls.obj
 0002:000034a8       ??_C@_1O@OJDJGAJC@?$AAs?$AAm?$AAs?$AA?9?$AAf?$AAi?$AA?$AA@ 100334a8     libcpmt:winapinls.obj
 0002:000034b8       ??_C@_1M@BOFOGHPB@?$AAs?$AAq?$AA?9?$AAa?$AAl?$AA?$AA@ 100334b8     libcpmt:winapinls.obj
 0002:000034c4       ??_C@_1BG@LJBBIPGB@?$AAs?$AAr?$AA?9?$AAb?$AAa?$AA?9?$AAc?$AAy?$AAr?$AAl?$AA?$AA@ 100334c4     libcpmt:winapinls.obj
 0002:000034dc       ??_C@_1BG@JLBENFOE@?$AAs?$AAr?$AA?9?$AAb?$AAa?$AA?9?$AAl?$AAa?$AAt?$AAn?$AA?$AA@ 100334dc     libcpmt:winapinls.obj
 0002:000034f4       ??_C@_1BG@KODPNHE@?$AAs?$AAr?$AA?9?$AAs?$AAp?$AA?9?$AAc?$AAy?$AAr?$AAl?$AA?$AA@ 100334f4     libcpmt:winapinls.obj
 0002:0000350c       ??_C@_1BG@CIOGKHPB@?$AAs?$AAr?$AA?9?$AAs?$AAp?$AA?9?$AAl?$AAa?$AAt?$AAn?$AA?$AA@ 1003350c     libcpmt:winapinls.obj
 0002:00003524       ??_C@_1M@NGFJLMAC@?$AAs?$AAv?$AA?9?$AAf?$AAi?$AA?$AA@ 10033524     libcpmt:winapinls.obj
 0002:00003530       ??_C@_1M@MPJEJAJC@?$AAs?$AAv?$AA?9?$AAs?$AAe?$AA?$AA@ 10033530     libcpmt:winapinls.obj
 0002:0000353c       ??_C@_1M@MPNDHLFK@?$AAs?$AAw?$AA?9?$AAk?$AAe?$AA?$AA@ 1003353c     libcpmt:winapinls.obj
 0002:00003548       ??_C@_1O@KOHBJJI@?$AAs?$AAy?$AAr?$AA?9?$AAs?$AAy?$AA?$AA@ 10033548     libcpmt:winapinls.obj
 0002:00003558       ??_C@_1M@LDCEFHA@?$AAt?$AAa?$AA?9?$AAi?$AAn?$AA?$AA@ 10033558     libcpmt:winapinls.obj
 0002:00003564       ??_C@_1M@CNJOFAK@?$AAt?$AAe?$AA?9?$AAi?$AAn?$AA?$AA@ 10033564     libcpmt:winapinls.obj
 0002:00003570       ??_C@_1M@GNAECACD@?$AAt?$AAh?$AA?9?$AAt?$AAh?$AA?$AA@ 10033570     libcpmt:winapinls.obj
 0002:0000357c       ??_C@_1M@CHBIHOJO@?$AAt?$AAn?$AA?9?$AAz?$AAa?$AA?$AA@ 1003357c     libcpmt:winapinls.obj
 0002:00003588       ??_C@_1M@GCCMIGPJ@?$AAt?$AAr?$AA?9?$AAt?$AAr?$AA?$AA@ 10033588     libcpmt:winapinls.obj
 0002:00003594       ??_C@_1M@CELMCNBK@?$AAt?$AAt?$AA?9?$AAr?$AAu?$AA?$AA@ 10033594     libcpmt:winapinls.obj
 0002:000035a0       ??_C@_1M@KLMCELGA@?$AAu?$AAk?$AA?9?$AAu?$AAa?$AA?$AA@ 100335a0     libcpmt:winapinls.obj
 0002:000035ac       ??_C@_1M@EPAJJAJF@?$AAu?$AAr?$AA?9?$AAp?$AAk?$AA?$AA@ 100335ac     libcpmt:winapinls.obj
 0002:000035b8       ??_C@_1BG@GEGPMCDJ@?$AAu?$AAz?$AA?9?$AAu?$AAz?$AA?9?$AAc?$AAy?$AAr?$AAl?$AA?$AA@ 100335b8     libcpmt:winapinls.obj
 0002:000035d0       ??_C@_1BG@EGGKJILM@?$AAu?$AAz?$AA?9?$AAu?$AAz?$AA?9?$AAl?$AAa?$AAt?$AAn?$AA?$AA@ 100335d0     libcpmt:winapinls.obj
 0002:000035e8       ??_C@_1M@GFOCLFF@?$AAv?$AAi?$AA?9?$AAv?$AAn?$AA?$AA@ 100335e8     libcpmt:winapinls.obj
 0002:000035f4       ??_C@_1M@CPAMEDFI@?$AAx?$AAh?$AA?9?$AAz?$AAa?$AA?$AA@ 100335f4     libcpmt:winapinls.obj
 0002:00003600       ??_C@_1O@EBKIFIGN@?$AAz?$AAh?$AA?9?$AAc?$AAh?$AAs?$AA?$AA@ 10033600     libcpmt:winapinls.obj
 0002:00003610       ??_C@_1O@NMHPGANE@?$AAz?$AAh?$AA?9?$AAc?$AAh?$AAt?$AA?$AA@ 10033610     libcpmt:winapinls.obj
 0002:00003620       ??_C@_1M@LPINJOMC@?$AAz?$AAh?$AA?9?$AAc?$AAn?$AA?$AA@ 10033620     libcpmt:winapinls.obj
 0002:0000362c       ??_C@_1M@OCJEJODD@?$AAz?$AAh?$AA?9?$AAh?$AAk?$AA?$AA@ 1003362c     libcpmt:winapinls.obj
 0002:00003638       ??_C@_1M@DNDLJINH@?$AAz?$AAh?$AA?9?$AAm?$AAo?$AA?$AA@ 10033638     libcpmt:winapinls.obj
 0002:00003644       ??_C@_1M@MBFDNDND@?$AAz?$AAh?$AA?9?$AAs?$AAg?$AA?$AA@ 10033644     libcpmt:winapinls.obj
 0002:00003650       ??_C@_1M@IMEPLEPE@?$AAz?$AAh?$AA?9?$AAt?$AAw?$AA?$AA@ 10033650     libcpmt:winapinls.obj
 0002:0000365c       ??_C@_1M@BBGHNHJP@?$AAz?$AAu?$AA?9?$AAz?$AAa?$AA?$AA@ 1003365c     libcpmt:winapinls.obj
 0002:00003698       __real@3ff0000000000000    10033698     libcpmt:xfprec.obj
 0002:0000374c       ??_7type_info@@6B@         1003374c     LIBCMT:std_type_info_static.obj
 0002:00003750       __pDefaultRawDllMain       10033750     LIBCMT:dll_dllmain.obj
 0002:00003750       __pRawDllMain              10033750     LIBCMT:dll_dllmain.obj
 0002:00003760       ??_7bad_array_new_length@std@@6B@ 10033760     LIBCMT:throw_bad_alloc.obj
 0002:00003768       ??_C@_0BF@KINCDENJ@bad?5array?5new?5length?$AA@ 10033768     LIBCMT:throw_bad_alloc.obj
 0002:00003780       __pDestructExceptionObject 10033780     libvcruntime:frame.obj
 0002:00003788       ??_7bad_exception@std@@6B@ 10033788     libvcruntime:frame.obj
 0002:00003790       ??_C@_0O@DPKOEFFH@bad?5exception?$AA@ 10033790     libvcruntime:frame.obj
 0002:000037d0       ??_C@_1BC@DNHGCMLG@?$AAa?$AAd?$AAv?$AAa?$AAp?$AAi?$AA3?$AA2?$AA?$AA@ 100337d0     libvcruntime:winapi_downlevel.obj
 0002:000037e4       ??_C@_1DM@KHCHBNEB@?$AAa?$AAp?$AAi?$AA?9?$AAm?$AAs?$AA?9?$AAw?$AAi?$AAn?$AA?9?$AAc?$AAo?$AAr?$AAe?$AA?9?$AAf?$AAi?$AAb?$AAe?$AAr?$AAs?$AA?9?$AAl?$AA1?$AA?9?$AA1?$AA?9?$AA1?$AA?$AA@ 100337e4     libvcruntime:winapi_downlevel.obj
 0002:00003820       ??_C@_1DK@LPPGFMPP@?$AAa?$AAp?$AAi?$AA?9?$AAm?$AAs?$AA?9?$AAw?$AAi?$AAn?$AA?9?$AAc?$AAo?$AAr?$AAe?$AA?9?$AAs?$AAy?$AAn?$AAc?$AAh?$AA?9?$AAl?$AA1?$AA?9?$AA2?$AA?9?$AA0?$AA?$AA@ 10033820     libvcruntime:winapi_downlevel.obj
 0002:0000385c       ??_C@_1BC@GDMECMAK@?$AAk?$AAe?$AAr?$AAn?$AAe?$AAl?$AA3?$AA2?$AA?$AA@ 1003385c     libvcruntime:winapi_downlevel.obj
 0002:00003874       ??_C@_0O@BAMBGLIE@EventRegister?$AA@ 10033874     libvcruntime:winapi_downlevel.obj
 0002:00003888       ??_C@_0BE@BJEEGHGK@EventSetInformation?$AA@ 10033888     libvcruntime:winapi_downlevel.obj
 0002:000038a0       ??_C@_0BA@FAKLIPIC@EventUnregister?$AA@ 100338a0     libvcruntime:winapi_downlevel.obj
 0002:000038b4       ??_C@_0BD@PKLHJPHD@EventWriteTransfer?$AA@ 100338b4     libvcruntime:winapi_downlevel.obj
 0002:000038f0       __Microsoft_CRTProvider    100338f0     libvcruntime:telemetry.obj
 0002:000038f4       ??_C@_0O@JEOPJOMI@Main?5Invoked?4?$AA@ 100338f4     libvcruntime:telemetry.obj
 0002:00003904       ??_C@_0P@NEAEIBDO@Main?5Returned?4?$AA@ 10033904     libvcruntime:telemetry.obj
 0002:00003aa8       ??_C@_08EHJDFFNH@__based?$CI?$AA@ 10033aa8     libvcruntime:undname.obj
 0002:00003ab4       ??_C@_07KOLFKCDI@__cdecl?$AA@ 10033ab4     libvcruntime:undname.obj
 0002:00003abc       ??_C@_08GHMPAG@__pascal?$AA@ 10033abc     libvcruntime:undname.obj
 0002:00003ac8       ??_C@_09IFJBGAPI@__stdcall?$AA@ 10033ac8     libvcruntime:undname.obj
 0002:00003ad4       ??_C@_0L@NPHFGOKO@__thiscall?$AA@ 10033ad4     libvcruntime:undname.obj
 0002:00003ae0       ??_C@_0L@JMKHOMEK@__fastcall?$AA@ 10033ae0     libvcruntime:undname.obj
 0002:00003aec       ??_C@_0N@BCKKPABJ@__vectorcall?$AA@ 10033aec     libvcruntime:undname.obj
 0002:00003afc       ??_C@_09HIJEGCPM@__clrcall?$AA@ 10033afc     libvcruntime:undname.obj
 0002:00003b08       ??_C@_06GHPCKEAG@__eabi?$AA@ 10033b08     libvcruntime:undname.obj
 0002:00003b10       ??_C@_07JOMMBBKO@__ptr64?$AA@ 10033b10     libvcruntime:undname.obj
 0002:00003b18       ??_C@_0L@PILCLIHE@__restrict?$AA@ 10033b18     libvcruntime:undname.obj
 0002:00003b24       ??_C@_0M@GFIIJFMG@__unaligned?$AA@ 10033b24     libvcruntime:undname.obj
 0002:00003b30       ??_C@_09DHDLOLLB@restrict?$CI?$AA@ 10033b30     libvcruntime:undname.obj
 0002:00003b3c       ??_C@_04NIHEBCM@?5new?$AA@ 10033b3c     libvcruntime:undname.obj
 0002:00003b44       ??_C@_07FPCDHGMM@?5delete?$AA@ 10033b44     libvcruntime:undname.obj
 0002:00003b4c       ??_C@_01NEMOKFLO@?$DN?$AA@ 10033b4c     libvcruntime:undname.obj
 0002:00003b50       ??_C@_02GPIOPFAK@?$DO?$DO?$AA@ 10033b50     libvcruntime:undname.obj
 0002:00003b54       ??_C@_02FODMEDOG@?$DM?$DM?$AA@ 10033b54     libvcruntime:undname.obj
 0002:00003b58       ??_C@_01DCLJPIOD@?$CB?$AA@ 10033b58     libvcruntime:undname.obj
 0002:00003b5c       ??_C@_02EGOFBIJA@?$DN?$DN?$AA@ 10033b5c     libvcruntime:undname.obj
 0002:00003b60       ??_C@_02FDNJECIE@?$CB?$DN?$AA@ 10033b60     libvcruntime:undname.obj
 0002:00003b64       ??_C@_02GPECMEKF@?$FL?$FN?$AA@ 10033b64     libvcruntime:undname.obj
 0002:00003b68       ??_C@_08LHJFAFGD@operator?$AA@ 10033b68     libvcruntime:undname.obj
 0002:00003b74       ??_C@_02HBOOOICD@?9?$DO?$AA@ 10033b74     libvcruntime:undname.obj
 0002:00003b78       ??_C@_02ECNGHCIF@?$CL?$CL?$AA@ 10033b78     libvcruntime:undname.obj
 0002:00003b7c       ??_C@_02BAABKJLB@?9?9?$AA@ 10033b7c     libvcruntime:undname.obj
 0002:00003b80       ??_C@_01MIFGBAGJ@?$CL?$AA@ 10033b80     libvcruntime:undname.obj
 0002:00003b84       ??_C@_01HNPIGOCE@?$CG?$AA@ 10033b84     libvcruntime:undname.obj
 0002:00003b88       ??_C@_03MNHNFDLC@?9?$DO?$CK?$AA@ 10033b88     libvcruntime:undname.obj
 0002:00003b8c       ??_C@_01KMDKNFGN@?1?$AA@   10033b8c     libvcruntime:undname.obj
 0002:00003b90       ??_C@_01FGNFDNOH@?$CF?$AA@ 10033b90     libvcruntime:undname.obj
 0002:00003b94       ??_C@_01MNNFJEPP@?$DM?$AA@ 10033b94     libvcruntime:undname.obj
 0002:00003b98       ??_C@_02EHCHHCKH@?$DM?$DN?$AA@ 10033b98     libvcruntime:undname.obj
 0002:00003b9c       ??_C@_01PPODPGHN@?$DO?$AA@ 10033b9c     libvcruntime:undname.obj
 0002:00003ba0       ??_C@_02EEKDKGMJ@?$DO?$DN?$AA@ 10033ba0     libvcruntime:undname.obj
 0002:00003ba4       ??_C@_01IHBHIGKO@?0?$AA@   10033ba4     libvcruntime:undname.obj
 0002:00003ba8       ??_C@_02HCKGKOFO@?$CI?$CJ?$AA@ 10033ba8     libvcruntime:undname.obj
 0002:00003bac       ??_C@_01PJKLJHI@?$HO?$AA@  10033bac     libvcruntime:undname.obj
 0002:00003bb0       ??_C@_01JKBOJNNK@?$FO?$AA@ 10033bb0     libvcruntime:undname.obj
 0002:00003bb4       ??_C@_01DNKMNLPK@?$HM?$AA@ 10033bb4     libvcruntime:undname.obj
 0002:00003bb8       ??_C@_02PPKAJPJL@?$CG?$CG?$AA@ 10033bb8     libvcruntime:undname.obj
 0002:00003bbc       ??_C@_02NONPIBCD@?$HM?$HM?$AA@ 10033bbc     libvcruntime:undname.obj
 0002:00003bc0       ??_C@_02FPIMKNGF@?$CK?$DN?$AA@ 10033bc0     libvcruntime:undname.obj
 0002:00003bc4       ??_C@_02FOEOMHFC@?$CL?$DN?$AA@ 10033bc4     libvcruntime:undname.obj
 0002:00003bc8       ??_C@_02FKMDLLOA@?9?$DN?$AA@ 10033bc8     libvcruntime:undname.obj
 0002:00003bcc       ??_C@_02FJEHGPIO@?1?$DN?$AA@ 10033bcc     libvcruntime:undname.obj
 0002:00003bd0       ??_C@_02FENAOKFI@?$CF?$DN?$AA@ 10033bd0     libvcruntime:undname.obj
 0002:00003bd4       ??_C@_03IKFCCPFF@?$DO?$DO?$DN?$AA@ 10033bd4     libvcruntime:undname.obj
 0002:00003bd8       ??_C@_03CDNPDDLA@?$DM?$DM?$DN?$AA@ 10033bd8     libvcruntime:undname.obj
 0002:00003bdc       ??_C@_02FGJGFEAB@?$CG?$DN?$AA@ 10033bdc     libvcruntime:undname.obj
 0002:00003be0       ??_C@_02DHLNPPGH@?$HM?$DN?$AA@ 10033be0     libvcruntime:undname.obj
 0002:00003be4       ??_C@_02MHEGNOJ@?$FO?$DN?$AA@ 10033be4     libvcruntime:undname.obj
 0002:00003be8       ??_C@_09IFPLHPGF@?$GAvftable?8?$AA@ 10033be8     libvcruntime:undname.obj
 0002:00003bf4       ??_C@_09BLBHBJP@?$GAvbtable?8?$AA@ 10033bf4     libvcruntime:undname.obj
 0002:00003c00       ??_C@_07FEEIOKP@?$GAvcall?8?$AA@ 10033c00     libvcruntime:undname.obj
 0002:00003c08       ??_C@_08LLFFHHDJ@?$GAtypeof?8?$AA@ 10033c08     libvcruntime:undname.obj
 0002:00003c14       ??_C@_0BF@KDPPACIK@?$GAlocal?5static?5guard?8?$AA@ 10033c14     libvcruntime:undname.obj
 0002:00003c2c       ??_C@_08OBABFOLI@?$GAstring?8?$AA@ 10033c2c     libvcruntime:undname.obj
 0002:00003c38       ??_C@_0BD@JDLKDPAB@?$GAvbase?5destructor?8?$AA@ 10033c38     libvcruntime:undname.obj
 0002:00003c4c       ??_C@_0BN@DEGPLNFK@?$GAvector?5deleting?5destructor?8?$AA@ 10033c4c     libvcruntime:undname.obj
 0002:00003c6c       ??_C@_0BO@OBMKPJIG@?$GAdefault?5constructor?5closure?8?$AA@ 10033c6c     libvcruntime:undname.obj
 0002:00003c8c       ??_C@_0BN@IMDCHIKM@?$GAscalar?5deleting?5destructor?8?$AA@ 10033c8c     libvcruntime:undname.obj
 0002:00003cac       ??_C@_0BO@PFGOCPJJ@?$GAvector?5constructor?5iterator?8?$AA@ 10033cac     libvcruntime:undname.obj
 0002:00003ccc       ??_C@_0BN@LFPFMEDL@?$GAvector?5destructor?5iterator?8?$AA@ 10033ccc     libvcruntime:undname.obj
 0002:00003cec       ??_C@_0CE@IKBNEHA@?$GAvector?5vbase?5constructor?5iterat@ 10033cec     libvcruntime:undname.obj
 0002:00003d10       ??_C@_0BL@NILFHHPC@?$GAvirtual?5displacement?5map?8?$AA@ 10033d10     libvcruntime:undname.obj
 0002:00003d2c       ??_C@_0CB@JONCMFFK@?$GAeh?5vector?5constructor?5iterator?8@ 10033d2c     libvcruntime:undname.obj
 0002:00003d50       ??_C@_0CA@GCEOPDGL@?$GAeh?5vector?5destructor?5iterator?8?$AA@ 10033d50     libvcruntime:undname.obj
 0002:00003d70       ??_C@_0CH@OOJPLCPH@?$GAeh?5vector?5vbase?5constructor?5ite@ 10033d70     libvcruntime:undname.obj
 0002:00003d98       ??_C@_0BL@LLKPOHJI@?$GAcopy?5constructor?5closure?8?$AA@ 10033d98     libvcruntime:undname.obj
 0002:00003db4       ??_C@_0BA@KBCDOMBN@?$GAudt?5returning?8?$AA@ 10033db4     libvcruntime:undname.obj
 0002:00003dc4       ??_C@_03KLGMFNMG@?$GAEH?$AA@ 10033dc4     libvcruntime:undname.obj
 0002:00003dc8       ??_C@_05KHLCHHI@?$GARTTI?$AA@ 10033dc8     libvcruntime:undname.obj
 0002:00003dd0       ??_C@_0BA@KKLDJDLB@?$GAlocal?5vftable?8?$AA@ 10033dd0     libvcruntime:undname.obj
 0002:00003de0       ??_C@_0CE@IIHCMGGL@?$GAlocal?5vftable?5constructor?5closu@ 10033de0     libvcruntime:undname.obj
 0002:00003e04       ??_C@_06FHBGPFGH@?5new?$FL?$FN?$AA@ 10033e04     libvcruntime:undname.obj
 0002:00003e0c       ??_C@_09LBNFPBCA@?5delete?$FL?$FN?$AA@ 10033e0c     libvcruntime:undname.obj
 0002:00003e18       ??_C@_0P@HJKNJFNN@?$GAomni?5callsig?8?$AA@ 10033e18     libvcruntime:undname.obj
 0002:00003e28       ??_C@_0BL@CNOONJFP@?$GAplacement?5delete?5closure?8?$AA@ 10033e28     libvcruntime:undname.obj
 0002:00003e44       ??_C@_0BN@CKNJLHMB@?$GAplacement?5delete?$FL?$FN?5closure?8?$AA@ 10033e44     libvcruntime:undname.obj
 0002:00003e64       ??_C@_0CG@CFDHKGGD@?$GAmanaged?5vector?5constructor?5iter@ 10033e64     libvcruntime:undname.obj
 0002:00003e8c       ??_C@_0CF@IMGKMJNO@?$GAmanaged?5vector?5destructor?5itera@ 10033e8c     libvcruntime:undname.obj
 0002:00003eb4       ??_C@_0CG@HLDDJMAG@?$GAeh?5vector?5copy?5constructor?5iter@ 10033eb4     libvcruntime:undname.obj
 0002:00003edc       ??_C@_0CM@FCBBDIGB@?$GAeh?5vector?5vbase?5copy?5constructo@ 10033edc     libvcruntime:undname.obj
 0002:00003f08       ??_C@_0BL@CLIPGLGB@?$GAdynamic?5initializer?5for?5?8?$AA@ 10033f08     libvcruntime:undname.obj
 0002:00003f24       ??_C@_0CB@PDBIFEP@?$GAdynamic?5atexit?5destructor?5for?5?8@ 10033f24     libvcruntime:undname.obj
 0002:00003f48       ??_C@_0CD@CGAJBKEJ@?$GAvector?5copy?5constructor?5iterato@ 10033f48     libvcruntime:undname.obj
 0002:00003f6c       ??_C@_0CJ@GJELGAMM@?$GAvector?5vbase?5copy?5constructor?5i@ 10033f6c     libvcruntime:undname.obj
 0002:00003f98       ??_C@_0CL@FGIJHLCE@?$GAmanaged?5vector?5copy?5constructor@ 10033f98     libvcruntime:undname.obj
 0002:00003fc4       ??_C@_0BM@PMGGMLDN@?$GAlocal?5static?5thread?5guard?8?$AA@ 10033fc4     libvcruntime:undname.obj
 0002:00003fe0       ??_C@_0N@BDNMDMOL@operator?5?$CC?$CC?5?$AA@ 10033fe0     libvcruntime:undname.obj
 0002:00003ff0       ??_C@_0BC@DAFEJGAK@?5Type?5Descriptor?8?$AA@ 10033ff0     libvcruntime:undname.obj
 0002:00004004       ??_C@_0BM@LDKODKLH@?5Base?5Class?5Descriptor?5at?5?$CI?$AA@ 10034004     libvcruntime:undname.obj
 0002:00004020       ??_C@_0BD@LGICGFMM@?5Base?5Class?5Array?8?$AA@ 10034020     libvcruntime:undname.obj
 0002:00004034       ??_C@_0BN@MECKDCOJ@?5Class?5Hierarchy?5Descriptor?8?$AA@ 10034034     libvcruntime:undname.obj
 0002:00004054       ??_C@_0BK@CFCOFLF@?5Complete?5Object?5Locator?8?$AA@ 10034054     libvcruntime:undname.obj
 0002:00004070       ??_C@_1EK@MBDPDCGA@?$AAM?$AAi?$AAc?$AAr?$AAo?$AAs?$AAo?$AAf?$AAt?$AA?5?$AAV?$AAi?$AAs?$AAu?$AAa?$AAl?$AA?5?$AAC?$AA?$CL?$AA?$CL?$AA?5?$AAR?$AAu?$AAn?$AAt?$AAi?$AAm?$AAe?$AA?5?$AAL?$AAi?$AAb@ 10034070     libucrt:assert.obj
 0002:000040c0       ??_C@_1FE@LHBLIKM@?$AAA?$AAs?$AAs?$AAe?$AAr?$AAt?$AAi?$AAo?$AAn?$AA?5?$AAf?$AAa?$AAi?$AAl?$AAe?$AAd?$AA?3?$AA?5?$AA?$CF?$AAT?$AAs?$AA?0?$AA?5?$AAf?$AAi?$AAl?$AAe?$AA?5?$AA?$CF?$AAT?$AAs?$AA?0@ 100340c0     libucrt:assert.obj
 0002:00004114       ??_C@_1CE@OJBNHDMO@?$AAA?$AAs?$AAs?$AAe?$AAr?$AAt?$AAi?$AAo?$AAn?$AA?5?$AAf?$AAa?$AAi?$AAl?$AAe?$AAd?$AA?$CB?$AA?$AA@ 10034114     libucrt:assert.obj
 0002:00004138       ??_C@_1BE@PHKBBGE@?$AAP?$AAr?$AAo?$AAg?$AAr?$AAa?$AAm?$AA?3?$AA?5?$AA?$AA@ 10034138     libucrt:assert.obj
 0002:0000414c       ??_C@_1O@HEMHKNDC@?$AAF?$AAi?$AAl?$AAe?$AA?3?$AA?5?$AA?$AA@ 1003414c     libucrt:assert.obj
 0002:0000415c       ??_C@_1O@KCAFKHJE@?$AAL?$AAi?$AAn?$AAe?$AA?3?$AA?5?$AA?$AA@ 1003415c     libucrt:assert.obj
 0002:0000416c       ??_C@_1BK@PEDCIPMA@?$AAE?$AAx?$AAp?$AAr?$AAe?$AAs?$AAs?$AAi?$AAo?$AAn?$AA?3?$AA?5?$AA?$AA@ 1003416c     libucrt:assert.obj
 0002:00004188       ??_C@_1OA@EGMLFBHJ@?$AAF?$AAo?$AAr?$AA?5?$AAi?$AAn?$AAf?$AAo?$AAr?$AAm?$AAa?$AAt?$AAi?$AAo?$AAn?$AA?5?$AAo?$AAn?$AA?5?$AAh?$AAo?$AAw?$AA?5?$AAy?$AAo?$AAu?$AAr?$AA?5?$AAp?$AAr?$AAo?$AAg@ 10034188     libucrt:assert.obj
 0002:00004268       ??_C@_1HK@POCJMFGK@?$AA?$CI?$AAP?$AAr?$AAe?$AAs?$AAs?$AA?5?$AAR?$AAe?$AAt?$AAr?$AAy?$AA?5?$AAt?$AAo?$AA?5?$AAd?$AAe?$AAb?$AAu?$AAg?$AA?5?$AAt?$AAh?$AAe?$AA?5?$AAa?$AAp?$AAp?$AAl?$AAi?$AAc@ 10034268     libucrt:assert.obj
 0002:000042e4       ??_C@_17LGKOMLJ@?$AA?4?$AA?4?$AA?4?$AA?$AA@ 100342e4     libucrt:assert.obj
 0002:000042ec       ??_C@_13LBAGMAIH@?$AA?6?$AA?$AA@ 100342ec     libucrt:assert.obj
 0002:000042f0       ??_C@_15IABLJNFO@?$AA?6?$AA?6?$AA?$AA@ 100342f0     libucrt:assert.obj
 0002:000042f8       ??_C@_1CO@EAEJAADC@?$AA?$DM?$AAp?$AAr?$AAo?$AAg?$AAr?$AAa?$AAm?$AA?5?$AAn?$AAa?$AAm?$AAe?$AA?5?$AAu?$AAn?$AAk?$AAn?$AAo?$AAw?$AAn?$AA?$DO?$AA?$AA@ 100342f8     libucrt:assert.obj
 0002:00004328       _standard_lookup_table     10034328     libucrt:output.obj
 0002:00004388       _format_validation_lookup_table 10034388     libucrt:output.obj
 0002:000043e4       ??_C@_06OJHGLDPL@?$CInull?$CJ?$AA@ 100343e4     libucrt:output.obj
 0002:000043ec       ??_C@_1O@CEDCILHN@?$AA?$CI?$AAn?$AAu?$AAl?$AAl?$AA?$CJ?$AA?$AA@ 100343ec     libucrt:output.obj
 0002:00004400       __real@8000000000000000    10034400     libucrt:frexp.obj
 0002:00004570       __wctype                   10034570     libucrt:ctype.obj
 0002:00004778       ___newctype                10034778     libucrt:ctype.obj
 0002:00004a78       ___newclmap                10034a78     libucrt:ctype.obj
 0002:00004bf8       ___newcumap                10034bf8     libucrt:ctype.obj
 0002:00004d88       ___acrt_exception_action_table 10034d88     libucrt:exception_filter.obj
 0002:00004e18       ___acrt_signal_action_table_count 10034e18     libucrt:exception_filter.obj
 0002:00004e1c       ___acrt_signal_action_first_fpe_index 10034e1c     libucrt:exception_filter.obj
 0002:00004e20       ___acrt_signal_action_fpe_count 10034e20     libucrt:exception_filter.obj
 0002:00004e24       ??_C@_1BI@BGOHAHKC@?$AAm?$AAs?$AAc?$AAo?$AAr?$AAe?$AAe?$AA?4?$AAd?$AAl?$AAl?$AA?$AA@ 10034e24     libucrt:exit.obj
 0002:00004e3c       ??_C@_0P@MIGLKIOC@CorExitProcess?$AA@ 10034e3c     libucrt:exit.obj
 0002:00004ec8       ??_C@_02CLFPBFFP@TZ?$AA@   10034ec8     libucrt:tzset.obj
 0002:00004ecc       __days                     10034ecc     libucrt:days.obj
 0002:00004f00       __lpdays                   10034f00     libucrt:days.obj
 0002:00004f88       ??_C@_1EG@CNNIPFIM@?$AAa?$AAp?$AAi?$AA?9?$AAm?$AAs?$AA?9?$AAw?$AAi?$AAn?$AA?9?$AAa?$AAp?$AAp?$AAm?$AAo?$AAd?$AAe?$AAl?$AA?9?$AAr?$AAu?$AAn?$AAt?$AAi?$AAm?$AAe?$AA?9?$AAl?$AA1?$AA?9?$AA1@ 10034f88     libucrt:winapi_thunks.obj
 0002:00004fd0       ??_C@_1EA@JGEFHKEI@?$AAa?$AAp?$AAi?$AA?9?$AAm?$AAs?$AA?9?$AAw?$AAi?$AAn?$AA?9?$AAc?$AAo?$AAr?$AAe?$AA?9?$AAd?$AAa?$AAt?$AAe?$AAt?$AAi?$AAm?$AAe?$AA?9?$AAl?$AA1?$AA?9?$AA1?$AA?9?$AA1?$AA?$AA@ 10034fd0     libucrt:winapi_thunks.obj
 0002:00005010       ??_C@_1DI@GCIAAENM@?$AAa?$AAp?$AAi?$AA?9?$AAm?$AAs?$AA?9?$AAw?$AAi?$AAn?$AA?9?$AAc?$AAo?$AAr?$AAe?$AA?9?$AAf?$AAi?$AAl?$AAe?$AA?9?$AAl?$AA2?$AA?9?$AA1?$AA?9?$AA1?$AA?$AA@ 10035010     libucrt:winapi_thunks.obj
 0002:00005048       ??_C@_1EI@MPIAOHOC@?$AAa?$AAp?$AAi?$AA?9?$AAm?$AAs?$AA?9?$AAw?$AAi?$AAn?$AA?9?$AAc?$AAo?$AAr?$AAe?$AA?9?$AAl?$AAo?$AAc?$AAa?$AAl?$AAi?$AAz?$AAa?$AAt?$AAi?$AAo?$AAn?$AA?9?$AAl?$AA1?$AA?9@ 10035048     libucrt:winapi_thunks.obj
 0002:00005090       ??_C@_1FK@FPHCKFIE@?$AAa?$AAp?$AAi?$AA?9?$AAm?$AAs?$AA?9?$AAw?$AAi?$AAn?$AA?9?$AAc?$AAo?$AAr?$AAe?$AA?9?$AAl?$AAo?$AAc?$AAa?$AAl?$AAi?$AAz?$AAa?$AAt?$AAi?$AAo?$AAn?$AA?9?$AAo?$AAb?$AAs@ 10035090     libucrt:winapi_thunks.obj
 0002:000050f0       ??_C@_1EM@DILCGIIO@?$AAa?$AAp?$AAi?$AA?9?$AAm?$AAs?$AA?9?$AAw?$AAi?$AAn?$AA?9?$AAc?$AAo?$AAr?$AAe?$AA?9?$AAp?$AAr?$AAo?$AAc?$AAe?$AAs?$AAs?$AAt?$AAh?$AAr?$AAe?$AAa?$AAd?$AAs?$AA?9?$AAl@ 100350f0     libucrt:winapi_thunks.obj
 0002:0000513c       ??_C@_1DM@LNCGDDPN@?$AAa?$AAp?$AAi?$AA?9?$AAm?$AAs?$AA?9?$AAw?$AAi?$AAn?$AA?9?$AAc?$AAo?$AAr?$AAe?$AA?9?$AAs?$AAt?$AAr?$AAi?$AAn?$AAg?$AA?9?$AAl?$AA1?$AA?9?$AA1?$AA?9?$AA0?$AA?$AA@ 1003513c     libucrt:winapi_thunks.obj
 0002:00005178       ??_C@_1DO@FPAPJEMD@?$AAa?$AAp?$AAi?$AA?9?$AAm?$AAs?$AA?9?$AAw?$AAi?$AAn?$AA?9?$AAc?$AAo?$AAr?$AAe?$AA?9?$AAs?$AAy?$AAs?$AAi?$AAn?$AAf?$AAo?$AA?9?$AAl?$AA1?$AA?9?$AA2?$AA?9?$AA1?$AA?$AA@ 10035178     libucrt:winapi_thunks.obj
 0002:000051b8       ??_C@_1DK@NDHNAHIO@?$AAa?$AAp?$AAi?$AA?9?$AAm?$AAs?$AA?9?$AAw?$AAi?$AAn?$AA?9?$AAc?$AAo?$AAr?$AAe?$AA?9?$AAw?$AAi?$AAn?$AAr?$AAt?$AA?9?$AAl?$AA1?$AA?9?$AA1?$AA?9?$AA0?$AA?$AA@ 100351b8     libucrt:winapi_thunks.obj
 0002:000051f4       ??_C@_1DM@KGHDGBCM@?$AAa?$AAp?$AAi?$AA?9?$AAm?$AAs?$AA?9?$AAw?$AAi?$AAn?$AA?9?$AAc?$AAo?$AAr?$AAe?$AA?9?$AAx?$AAs?$AAt?$AAa?$AAt?$AAe?$AA?9?$AAl?$AA2?$AA?9?$AA1?$AA?9?$AA0?$AA?$AA@ 100351f4     libucrt:winapi_thunks.obj
 0002:00005230       ??_C@_1EO@IJIOEFOH@?$AAa?$AAp?$AAi?$AA?9?$AAm?$AAs?$AA?9?$AAw?$AAi?$AAn?$AA?9?$AAr?$AAt?$AAc?$AAo?$AAr?$AAe?$AA?9?$AAn?$AAt?$AAu?$AAs?$AAe?$AAr?$AA?9?$AAw?$AAi?$AAn?$AAd?$AAo?$AAw?$AA?9@ 10035230     libucrt:winapi_thunks.obj
 0002:00005280       ??_C@_1FG@HHGEKANL@?$AAa?$AAp?$AAi?$AA?9?$AAm?$AAs?$AA?9?$AAw?$AAi?$AAn?$AA?9?$AAs?$AAe?$AAc?$AAu?$AAr?$AAi?$AAt?$AAy?$AA?9?$AAs?$AAy?$AAs?$AAt?$AAe?$AAm?$AAf?$AAu?$AAn?$AAc?$AAt?$AAi@ 10035280     libucrt:winapi_thunks.obj
 0002:000052d8       ??_C@_1FG@NCKKOLKO@?$AAe?$AAx?$AAt?$AA?9?$AAm?$AAs?$AA?9?$AAw?$AAi?$AAn?$AA?9?$AAk?$AAe?$AAr?$AAn?$AAe?$AAl?$AA3?$AA2?$AA?9?$AAp?$AAa?$AAc?$AAk?$AAa?$AAg?$AAe?$AA?9?$AAc?$AAu?$AAr?$AAr@ 100352d8     libucrt:winapi_thunks.obj
 0002:00005330       ??_C@_1EG@DBIOJECG@?$AAe?$AAx?$AAt?$AA?9?$AAm?$AAs?$AA?9?$AAw?$AAi?$AAn?$AA?9?$AAn?$AAt?$AAu?$AAs?$AAe?$AAr?$AA?9?$AAd?$AAi?$AAa?$AAl?$AAo?$AAg?$AAb?$AAo?$AAx?$AA?9?$AAl?$AA1?$AA?9?$AA1@ 10035330     libucrt:winapi_thunks.obj
 0002:00005378       ??_C@_1EO@FIHMJCLF@?$AAe?$AAx?$AAt?$AA?9?$AAm?$AAs?$AA?9?$AAw?$AAi?$AAn?$AA?9?$AAn?$AAt?$AAu?$AAs?$AAe?$AAr?$AA?9?$AAw?$AAi?$AAn?$AAd?$AAo?$AAw?$AAs?$AAt?$AAa?$AAt?$AAi?$AAo?$AAn?$AA?9@ 10035378     libucrt:winapi_thunks.obj
 0002:000053c8       ??_C@_1O@BCCLBEOE@?$AAu?$AAs?$AAe?$AAr?$AA3?$AA2?$AA?$AA@ 100353c8     libucrt:winapi_thunks.obj
 0002:000053e8       ??_C@_0BE@LJANKFHF@EnumSystemLocalesEx?$AA@ 100353e8     libucrt:winapi_thunks.obj
 0002:00005424       ??_C@_0BA@HNOPNCHB@GetActiveWindow?$AA@ 10035424     libucrt:winapi_thunks.obj
 0002:00005444       ??_C@_0BD@HHGDFDBJ@GetLastActivePopup?$AA@ 10035444     libucrt:winapi_thunks.obj
 0002:00005468       ??_C@_0BI@DFKBFLJE@GetProcessWindowStation?$AA@ 10035468     libucrt:winapi_thunks.obj
 0002:0000548c       ??_C@_0BJ@PBCCBIPI@GetUserDefaultLocaleName?$AA@ 1003548c     libucrt:winapi_thunks.obj
 0002:000054b0       ??_C@_0BK@DEKFELLI@GetUserObjectInformationW?$AA@ 100354b0     libucrt:winapi_thunks.obj
 0002:000054dc       ??_C@_0BC@CELBKLLA@IsValidLocaleName?$AA@ 100354dc     libucrt:winapi_thunks.obj
 0002:00005500       ??_C@_0BB@CDHDDLLP@LCIDToLocaleName?$AA@ 10035500     libucrt:winapi_thunks.obj
 0002:0000551c       ??_C@_0BB@HBDEELFH@LocaleNameToLCID?$AA@ 1003551c     libucrt:winapi_thunks.obj
 0002:00005538       ??_C@_0M@CHKKJDAI@MessageBoxA?$AA@ 10035538     libucrt:winapi_thunks.obj
 0002:0000554c       ??_C@_0M@DLDCCGNP@MessageBoxW?$AA@ 1003554c     libucrt:winapi_thunks.obj
 0002:00005558       ??_C@_03OEIAHPBN@INF?$AA@  10035558     libucrt:cvt.obj
 0002:0000555c       ??_C@_03OJHLLCGB@inf?$AA@  1003555c     libucrt:cvt.obj
 0002:00005560       ??_C@_03LKNCIKJB@NAN?$AA@  10035560     libucrt:cvt.obj
 0002:00005564       ??_C@_03LHCJEHON@nan?$AA@  10035564     libucrt:cvt.obj
 0002:00005568       ??_C@_09OFJJIMPC@NAN?$CISNAN?$CJ?$AA@ 10035568     libucrt:cvt.obj
 0002:00005574       ??_C@_09IPFBKMDL@nan?$CIsnan?$CJ?$AA@ 10035574     libucrt:cvt.obj
 0002:00005580       ??_C@_08IKHNHAJ@NAN?$CIIND?$CJ?$AA@ 10035580     libucrt:cvt.obj
 0002:0000558c       ??_C@_08OFCDMILK@nan?$CIind?$CJ?$AA@ 1003558c     libucrt:cvt.obj
 0002:00005598       ??_C@_05KLBDPFGC@e?$CL000?$AA@ 10035598     libucrt:cvt.obj
 0002:000055a0       ___lc_category             100355a0     libucrt:wsetlocale.obj
 0002:000055e8       ??_C@_1O@GIFLHMA@?$AAL?$AAC?$AA_?$AAA?$AAL?$AAL?$AA?$AA@ 100355e8     libucrt:wsetlocale.obj
 0002:000055f8       ??_C@_1BG@PPOMIBNJ@?$AAL?$AAC?$AA_?$AAC?$AAO?$AAL?$AAL?$AAA?$AAT?$AAE?$AA?$AA@ 100355f8     libucrt:wsetlocale.obj
 0002:00005610       ??_C@_1BC@FFJGAPJM@?$AAL?$AAC?$AA_?$AAC?$AAT?$AAY?$AAP?$AAE?$AA?$AA@ 10035610     libucrt:wsetlocale.obj
 0002:00005624       ??_C@_1BI@PCKFNJFB@?$AAL?$AAC?$AA_?$AAM?$AAO?$AAN?$AAE?$AAT?$AAA?$AAR?$AAY?$AA?$AA@ 10035624     libucrt:wsetlocale.obj
 0002:0000563c       ??_C@_1BG@ENIEDKID@?$AAL?$AAC?$AA_?$AAN?$AAU?$AAM?$AAE?$AAR?$AAI?$AAC?$AA?$AA@ 1003563c     libucrt:wsetlocale.obj
 0002:00005654       ??_C@_1BA@HAAOMIIG@?$AAL?$AAC?$AA_?$AAT?$AAI?$AAM?$AAE?$AA?$AA@ 10035654     libucrt:wsetlocale.obj
 0002:000056e8       ??_C@_15NBPDDFIP@?$AA?$DN?$AA?$DL?$AA?$AA@ 100356e8     libucrt:wsetlocale.obj
 0002:000056f0       ??_C@_13PJJBFPED@?$AA?$DL?$AA?$AA@ 100356f0     libucrt:wsetlocale.obj
 0002:000056f4       ??_C@_13NMPKAAJP@?$AA?$DN?$AA?$AA@ 100356f4     libucrt:wsetlocale.obj
 0002:000056f8       ??_C@_13FHBKNHDA@?$AAC?$AA?$AA@ 100356f8     libucrt:wsetlocale.obj
 0002:000056fc       ??_C@_17MBJJLFDM@?$AA_?$AA?4?$AA?0?$AA?$AA@ 100356fc     libucrt:wsetlocale.obj
 0002:00005704       ??_C@_13ENNFDPBH@?$AA_?$AA?$AA@ 10035704     libucrt:wsetlocale.obj
 0002:00005708       ??_C@_13JOFGPIOO@?$AA?4?$AA?$AA@ 10035708     libucrt:wsetlocale.obj
 0002:0000570c       ??_C@_03KOEHGMDN@Sun?$AA@  1003570c     libucrt:nlsdata.obj
 0002:00005710       ??_C@_03PDAGKDH@Mon?$AA@   10035710     libucrt:nlsdata.obj
 0002:00005714       ??_C@_03NAGEINEP@Tue?$AA@  10035714     libucrt:nlsdata.obj
 0002:00005718       ??_C@_03MHOMLAJA@Wed?$AA@  10035718     libucrt:nlsdata.obj
 0002:0000571c       ??_C@_03IOFIKPDN@Thu?$AA@  1003571c     libucrt:nlsdata.obj
 0002:00005720       ??_C@_03IDIOELNC@Fri?$AA@  10035720     libucrt:nlsdata.obj
 0002:00005724       ??_C@_03FEFJNEK@Sat?$AA@   10035724     libucrt:nlsdata.obj
 0002:00005728       ??_C@_06OOPIFAJ@Sunday?$AA@ 10035728     libucrt:nlsdata.obj
 0002:00005730       ??_C@_06JLEDEDGH@Monday?$AA@ 10035730     libucrt:nlsdata.obj
 0002:00005738       ??_C@_07BAAGCFCM@Tuesday?$AA@ 10035738     libucrt:nlsdata.obj
 0002:00005740       ??_C@_09DLIGFAKA@Wednesday?$AA@ 10035740     libucrt:nlsdata.obj
 0002:0000574c       ??_C@_08HACCIKIA@Thursday?$AA@ 1003574c     libucrt:nlsdata.obj
 0002:00005758       ??_C@_06JECMNKMI@Friday?$AA@ 10035758     libucrt:nlsdata.obj
 0002:00005760       ??_C@_08INBOOONO@Saturday?$AA@ 10035760     libucrt:nlsdata.obj
 0002:0000576c       ??_C@_03JIHJHPIE@Jan?$AA@  1003576c     libucrt:nlsdata.obj
 0002:00005770       ??_C@_03HJBDCHOM@Feb?$AA@  10035770     libucrt:nlsdata.obj
 0002:00005774       ??_C@_03ODNJBKGA@Mar?$AA@  10035774     libucrt:nlsdata.obj
 0002:00005778       ??_C@_03LEOLGMJP@Apr?$AA@  10035778     libucrt:nlsdata.obj
 0002:0000577c       ??_C@_03CNMDKL@May?$AA@    1003577c     libucrt:nlsdata.obj
 0002:00005780       ??_C@_03IDFGHECI@Jun?$AA@  10035780     libucrt:nlsdata.obj
 0002:00005784       ??_C@_03LBGABGKK@Jul?$AA@  10035784     libucrt:nlsdata.obj
 0002:00005788       ??_C@_03IFJFEIGA@Aug?$AA@  10035788     libucrt:nlsdata.obj
 0002:0000578c       ??_C@_03GGCAPAJC@Sep?$AA@  1003578c     libucrt:nlsdata.obj
 0002:00005790       ??_C@_03BMAOKBAD@Oct?$AA@  10035790     libucrt:nlsdata.obj
 0002:00005794       ??_C@_03JPJOFNIA@Nov?$AA@  10035794     libucrt:nlsdata.obj
 0002:00005798       ??_C@_03MKABNOCG@Dec?$AA@  10035798     libucrt:nlsdata.obj
 0002:0000579c       ??_C@_07CGJPFGJA@January?$AA@ 1003579c     libucrt:nlsdata.obj
 0002:000057a4       ??_C@_08GNJGEPFN@February?$AA@ 100357a4     libucrt:nlsdata.obj
 0002:000057b0       ??_C@_05HPCKOFNC@March?$AA@ 100357b0     libucrt:nlsdata.obj
 0002:000057b8       ??_C@_05DMJDNLEJ@April?$AA@ 100357b8     libucrt:nlsdata.obj
 0002:000057c0       ??_C@_04CNLMGBGM@June?$AA@ 100357c0     libucrt:nlsdata.obj
 0002:000057c8       ??_C@_04MIEPOIFP@July?$AA@ 100357c8     libucrt:nlsdata.obj
 0002:000057d0       ??_C@_06LBBHFDDG@August?$AA@ 100357d0     libucrt:nlsdata.obj
 0002:000057d8       ??_C@_09BHHEALKD@September?$AA@ 100357d8     libucrt:nlsdata.obj
 0002:000057e4       ??_C@_07JJNFCEND@October?$AA@ 100357e4     libucrt:nlsdata.obj
 0002:000057ec       ??_C@_08HCHEGEOA@November?$AA@ 100357ec     libucrt:nlsdata.obj
 0002:000057f8       ??_C@_08EDHMEBNP@December?$AA@ 100357f8     libucrt:nlsdata.obj
 0002:00005804       ??_C@_02DEDBPAFC@AM?$AA@   10035804     libucrt:nlsdata.obj
 0002:00005808       ??_C@_02CJNFDJBF@PM?$AA@   10035808     libucrt:nlsdata.obj
 0002:0000580c       ??_C@_08BPBNCDIB@MM?1dd?1yy?$AA@ 1003580c     libucrt:nlsdata.obj
 0002:00005818       ??_C@_0BE@CKGJFCPC@dddd?0?5MMMM?5dd?0?5yyyy?$AA@ 10035818     libucrt:nlsdata.obj
 0002:0000582c       ??_C@_08JCCMCCIL@HH?3mm?3ss?$AA@ 1003582c     libucrt:nlsdata.obj
 0002:00005838       ??_C@_17MBGCMIPB@?$AAS?$AAu?$AAn?$AA?$AA@ 10035838     libucrt:nlsdata.obj
 0002:00005840       ??_C@_17KBOMKBF@?$AAM?$AAo?$AAn?$AA?$AA@ 10035840     libucrt:nlsdata.obj
 0002:00005848       ??_C@_17BMKGEGOJ@?$AAT?$AAu?$AAe?$AA?$AA@ 10035848     libucrt:nlsdata.obj
 0002:00005850       ??_C@_17CJEDCEPE@?$AAW?$AAe?$AAd?$AA?$AA@ 10035850     libucrt:nlsdata.obj
 0002:00005858       ??_C@_17PDPHAADD@?$AAT?$AAh?$AAu?$AA?$AA@ 10035858     libucrt:nlsdata.obj
 0002:00005860       ??_C@_17HFOLPPLP@?$AAF?$AAr?$AAi?$AA?$AA@ 10035860     libucrt:nlsdata.obj
 0002:00005868       ??_C@_17GGIBDPIH@?$AAS?$AAa?$AAt?$AA?$AA@ 10035868     libucrt:nlsdata.obj
 0002:00005870       ??_C@_1O@IHNHDHPB@?$AAS?$AAu?$AAn?$AAd?$AAa?$AAy?$AA?$AA@ 10035870     libucrt:nlsdata.obj
 0002:00005880       ??_C@_1O@MMNBFLIA@?$AAM?$AAo?$AAn?$AAd?$AAa?$AAy?$AA?$AA@ 10035880     libucrt:nlsdata.obj
 0002:00005890       ??_C@_1BA@ENFBFFEK@?$AAT?$AAu?$AAe?$AAs?$AAd?$AAa?$AAy?$AA?$AA@ 10035890     libucrt:nlsdata.obj
 0002:000058a0       ??_C@_1BE@EBOGMDOH@?$AAW?$AAe?$AAd?$AAn?$AAe?$AAs?$AAd?$AAa?$AAy?$AA?$AA@ 100358a0     libucrt:nlsdata.obj
 0002:000058b4       ??_C@_1BC@HHMNLIHE@?$AAT?$AAh?$AAu?$AAr?$AAs?$AAd?$AAa?$AAy?$AA?$AA@ 100358b4     libucrt:nlsdata.obj
 0002:000058c8       ??_C@_1O@PDICJHAG@?$AAF?$AAr?$AAi?$AAd?$AAa?$AAy?$AA?$AA@ 100358c8     libucrt:nlsdata.obj
 0002:000058d8       ??_C@_1BC@ENMNNPAJ@?$AAS?$AAa?$AAt?$AAu?$AAr?$AAd?$AAa?$AAy?$AA?$AA@ 100358d8     libucrt:nlsdata.obj
 0002:000058ec       ??_C@_17DKNBKCHM@?$AAJ?$AAa?$AAn?$AA?$AA@ 100358ec     libucrt:nlsdata.obj
 0002:000058f4       ??_C@_17LMDJEKJN@?$AAF?$AAe?$AAb?$AA?$AA@ 100358f4     libucrt:nlsdata.obj
 0002:000058fc       ??_C@_17CKNLEDEC@?$AAM?$AAa?$AAr?$AA?$AA@ 100358fc     libucrt:nlsdata.obj
 0002:00005904       ??_C@_17LFPOIHDD@?$AAA?$AAp?$AAr?$AA?$AA@ 10035904     libucrt:nlsdata.obj
 0002:0000590c       ??_C@_17PNNKMEED@?$AAM?$AAa?$AAy?$AA?$AA@ 1003590c     libucrt:nlsdata.obj
 0002:00005914       ??_C@_17KCJGOCPB@?$AAJ?$AAu?$AAn?$AA?$AA@ 10035914     libucrt:nlsdata.obj
 0002:0000591c       ??_C@_17IJPCKHK@?$AAJ?$AAu?$AAl?$AA?$AA@ 1003591c     libucrt:nlsdata.obj
 0002:00005924       ??_C@_17ICPELBCN@?$AAA?$AAu?$AAg?$AA?$AA@ 10035924     libucrt:nlsdata.obj
 0002:0000592c       ??_C@_17HCHCOKMG@?$AAS?$AAe?$AAp?$AA?$AA@ 1003592c     libucrt:nlsdata.obj
 0002:00005934       ??_C@_17FNLKOI@?$AAO?$AAc?$AAt?$AA?$AA@ 10035934     libucrt:nlsdata.obj
 0002:0000593c       ??_C@_17BBDMLCIG@?$AAN?$AAo?$AAv?$AA?$AA@ 1003593c     libucrt:nlsdata.obj
 0002:00005944       ??_C@_17EGKACKIF@?$AAD?$AAe?$AAc?$AA?$AA@ 10035944     libucrt:nlsdata.obj
 0002:0000594c       ??_C@_1BA@EFMEIEBA@?$AAJ?$AAa?$AAn?$AAu?$AAa?$AAr?$AAy?$AA?$AA@ 1003594c     libucrt:nlsdata.obj
 0002:0000595c       ??_C@_1BC@JGDDFFAM@?$AAF?$AAe?$AAb?$AAr?$AAu?$AAa?$AAr?$AAy?$AA?$AA@ 1003595c     libucrt:nlsdata.obj
 0002:00005970       ??_C@_1M@IKEENEDF@?$AAM?$AAa?$AAr?$AAc?$AAh?$AA?$AA@ 10035970     libucrt:nlsdata.obj
 0002:0000597c       ??_C@_1M@GJNLMHFD@?$AAA?$AAp?$AAr?$AAi?$AAl?$AA?$AA@ 1003597c     libucrt:nlsdata.obj
 0002:00005988       ??_C@_19EPFLPGAP@?$AAJ?$AAu?$AAn?$AAe?$AA?$AA@ 10035988     libucrt:nlsdata.obj
 0002:00005994       ??_C@_19BIFMLPCD@?$AAJ?$AAu?$AAl?$AAy?$AA?$AA@ 10035994     libucrt:nlsdata.obj
 0002:000059a0       ??_C@_1O@PAHLKOAC@?$AAA?$AAu?$AAg?$AAu?$AAs?$AAt?$AA?$AA@ 100359a0     libucrt:nlsdata.obj
 0002:000059b0       ??_C@_1BE@DKAAMBJL@?$AAS?$AAe?$AAp?$AAt?$AAe?$AAm?$AAb?$AAe?$AAr?$AA?$AA@ 100359b0     libucrt:nlsdata.obj
 0002:000059c4       ??_C@_1BA@EPANDLNG@?$AAO?$AAc?$AAt?$AAo?$AAb?$AAe?$AAr?$AA?$AA@ 100359c4     libucrt:nlsdata.obj
 0002:000059d4       ??_C@_1BC@BGLIFPF@?$AAN?$AAo?$AAv?$AAe?$AAm?$AAb?$AAe?$AAr?$AA?$AA@ 100359d4     libucrt:nlsdata.obj
 0002:000059e8       ??_C@_1BC@FEMKIFH@?$AAD?$AAe?$AAc?$AAe?$AAm?$AAb?$AAe?$AAr?$AA?$AA@ 100359e8     libucrt:nlsdata.obj
 0002:000059fc       ??_C@_15ODEHAHHF@?$AAA?$AAM?$AA?$AA@ 100359fc     libucrt:nlsdata.obj
 0002:00005a04       ??_C@_15CLMNNGEL@?$AAP?$AAM?$AA?$AA@ 10035a04     libucrt:nlsdata.obj
 0002:00005a0c       ??_C@_1BC@IEBCMHCM@?$AAM?$AAM?$AA?1?$AAd?$AAd?$AA?1?$AAy?$AAy?$AA?$AA@ 10035a0c     libucrt:nlsdata.obj
 0002:00005a20       ??_C@_1CI@KNAKOEBC@?$AAd?$AAd?$AAd?$AAd?$AA?0?$AA?5?$AAM?$AAM?$AAM?$AAM?$AA?5?$AAd?$AAd?$AA?0?$AA?5?$AAy?$AAy?$AAy?$AAy?$AA?$AA@ 10035a20     libucrt:nlsdata.obj
 0002:00005a48       ??_C@_1BC@GDGBMEMK@?$AAH?$AAH?$AA?3?$AAm?$AAm?$AA?3?$AAs?$AAs?$AA?$AA@ 10035a48     libucrt:nlsdata.obj
 0002:00005a60       ___lc_time_c               10035a60     libucrt:nlsdata.obj
 0002:00005bc4       ??_C@_04FJHINJAO@tanh?$AA@ 10035bc4     libucrt:fpexcept.obj
 0002:00005bcc       ??_C@_04FIHNOPOL@asin?$AA@ 10035bcc     libucrt:fpexcept.obj
 0002:00005bd4       ??_C@_04PDIFKINK@acos?$AA@ 10035bd4     libucrt:fpexcept.obj
 0002:00005bdc       ??_C@_04MLLJIGOK@atan?$AA@ 10035bdc     libucrt:fpexcept.obj
 0002:00005be4       ??_C@_05KNGEOGJB@atan2?$AA@ 10035be4     libucrt:fpexcept.obj
 0002:00005bec       ??_C@_04EIAKFFMI@sqrt?$AA@ 10035bec     libucrt:fpexcept.obj
 0002:00005bf4       ??_C@_03BLEJJJBH@sin?$AA@  10035bf4     libucrt:fpexcept.obj
 0002:00005bf8       ??_C@_03LALBNOCG@cos?$AA@  10035bf8     libucrt:fpexcept.obj
 0002:00005bfc       ??_C@_03IIINPABG@tan?$AA@  10035bfc     libucrt:fpexcept.obj
 0002:00005c00       ??_C@_04GFPJNGEK@ceil?$AA@ 10035c00     libucrt:fpexcept.obj
 0002:00005c08       ??_C@_05PBJFFIGL@floor?$AA@ 10035c08     libucrt:fpexcept.obj
 0002:00005c10       ??_C@_04ODHECPBC@fabs?$AA@ 10035c10     libucrt:fpexcept.obj
 0002:00005c18       ??_C@_04EHEDPDJG@modf?$AA@ 10035c18     libucrt:fpexcept.obj
 0002:00005c20       ??_C@_05CEJMAHNP@ldexp?$AA@ 10035c20     libucrt:fpexcept.obj
 0002:00005c28       ??_C@_05KBKMEMPO@_cabs?$AA@ 10035c28     libucrt:fpexcept.obj
 0002:00005c30       ??_C@_06MEIMCGCF@_hypot?$AA@ 10035c30     libucrt:fpexcept.obj
 0002:00005c38       ??_C@_04KEPJIHGP@fmod?$AA@ 10035c38     libucrt:fpexcept.obj
 0002:00005c40       ??_C@_05GKKHEGJL@frexp?$AA@ 10035c40     libucrt:fpexcept.obj
 0002:00005c48       ??_C@_03MJLDFKDL@_y0?$AA@  10035c48     libucrt:fpexcept.obj
 0002:00005c4c       ??_C@_03NAKIGLHK@_y1?$AA@  10035c4c     libucrt:fpexcept.obj
 0002:00005c50       ??_C@_03ONILCKOB@_yn?$AA@  10035c50     libucrt:fpexcept.obj
 0002:00005c54       ??_C@_05JGDBENOH@_logb?$AA@ 10035c54     libucrt:fpexcept.obj
 0002:00005c5c       ??_C@_0L@KDOEJCKC@_nextafter?$AA@ 10035c5c     libucrt:fpexcept.obj
 0002:00005d50       ??_C@_03KHJOGHMM@exp?$AA@  10035d50     libucrt:fpexcept.obj
 0002:00005d54       ??_C@_03JGHBODFD@pow?$AA@  10035d54     libucrt:fpexcept.obj
 0002:00005d58       ??_C@_03MGHMBJCF@log?$AA@  10035d58     libucrt:fpexcept.obj
 0002:00005d5c       ??_C@_05HGHHAHAP@log10?$AA@ 10035d5c     libucrt:fpexcept.obj
 0002:00005d64       ??_C@_04COOMCNPB@sinh?$AA@ 10035d64     libucrt:fpexcept.obj
 0002:00005d6c       ??_C@_04HPJJNFIM@cosh?$AA@ 10035d6c     libucrt:fpexcept.obj
 0002:00005d78       __d_inf                    10035d78     libucrt:util.obj
 0002:00005d80       __d_max                    10035d80     libucrt:util.obj
 0002:00005d88       __d_mzero                  10035d88     libucrt:util.obj
 0002:00005db0       __indefinite               10035db0     libucrt:87disp.obj
 0002:00005dba       __piby2                    10035dba     libucrt:87disp.obj
 0002:00005dc4       __piby4                    10035dc4     libucrt:87disp.obj
 0002:00005df8       __DEFAULT_CW_in_mem        10035df8     libucrt:common.obj
 0002:00005dfa       __pi_by_2_to_61            10035dfa     libucrt:common.obj
 0002:00006c88       ?large_power_data@?1??multiply_by_power_of_ten@__crt_strtox@@YA_NAAUbig_integer@2@I@Z@4QBIB 10036c88     libucrt:cfout.obj
 0002:00007590       ?large_power_indices@?1??multiply_by_power_of_ten@__crt_strtox@@YA_NAAUbig_integer@2@I@Z@4QBUunpack_index@?1??12@YA_N0I@Z@B 10037590     libucrt:cfout.obj
 0002:00007628       ?small_powers_of_ten@?6??multiply_by_power_of_ten@__crt_strtox@@YA_NAAUbig_integer@2@I@Z@4QBIB 10037628     libucrt:cfout.obj
 0002:0000764c       ??_C@_01GBGANLPD@0?$AA@    1003764c     libucrt:cfout.obj
 0002:00007650       ??_C@_05DNEBIAHO@1?$CDINF?$AA@ 10037650     libucrt:cfout.obj
 0002:00007658       ??_C@_06IMKFLFPG@1?$CDQNAN?$AA@ 10037658     libucrt:cfout.obj
 0002:00007660       ??_C@_06PGGFOGJG@1?$CDSNAN?$AA@ 10037660     libucrt:cfout.obj
 0002:00007668       ??_C@_05PHHOCPM@1?$CDIND?$AA@ 10037668     libucrt:cfout.obj
 0002:00007670       ??_C@_1BC@LLOKLNP@?$AAa?$AAm?$AAe?$AAr?$AAi?$AAc?$AAa?$AAn?$AA?$AA@ 10037670     libucrt:get_qualified_locale.obj
 0002:00007684       ??_C@_1CC@HEIGCDGG@?$AAa?$AAm?$AAe?$AAr?$AAi?$AAc?$AAa?$AAn?$AA?5?$AAe?$AAn?$AAg?$AAl?$AAi?$AAs?$AAh?$AA?$AA@ 10037684     libucrt:get_qualified_locale.obj
 0002:000076a8       ??_C@_1CC@IHCNOMIN@?$AAa?$AAm?$AAe?$AAr?$AAi?$AAc?$AAa?$AAn?$AA?9?$AAe?$AAn?$AAg?$AAl?$AAi?$AAs?$AAh?$AA?$AA@ 100376a8     libucrt:get_qualified_locale.obj
 0002:000076cc       ??_C@_1BG@GKAGPCGG@?$AAa?$AAu?$AAs?$AAt?$AAr?$AAa?$AAl?$AAi?$AAa?$AAn?$AA?$AA@ 100376cc     libucrt:get_qualified_locale.obj
 0002:000076e4       ??_C@_1BA@GMENCENF@?$AAb?$AAe?$AAl?$AAg?$AAi?$AAa?$AAn?$AA?$AA@ 100376e4     libucrt:get_qualified_locale.obj
 0002:000076f4       ??_C@_1BC@PJMIIAAN@?$AAc?$AAa?$AAn?$AAa?$AAd?$AAi?$AAa?$AAn?$AA?$AA@ 100376f4     libucrt:get_qualified_locale.obj
 0002:00007708       ??_C@_17NOIMNFBF@?$AAc?$AAh?$AAh?$AA?$AA@ 10037708     libucrt:get_qualified_locale.obj
 0002:00007710       ??_C@_17GGDALCHA@?$AAc?$AAh?$AAi?$AA?$AA@ 10037710     libucrt:get_qualified_locale.obj
 0002:00007718       ??_C@_1BA@NPNJKIBL@?$AAc?$AAh?$AAi?$AAn?$AAe?$AAs?$AAe?$AA?$AA@ 10037718     libucrt:get_qualified_locale.obj
 0002:00007728       ??_C@_1CC@DINBAMMJ@?$AAc?$AAh?$AAi?$AAn?$AAe?$AAs?$AAe?$AA?9?$AAh?$AAo?$AAn?$AAg?$AAk?$AAo?$AAn?$AAg?$AA?$AA@ 10037728     libucrt:get_qualified_locale.obj
 0002:0000774c       ??_C@_1CG@IOBJPACO@?$AAc?$AAh?$AAi?$AAn?$AAe?$AAs?$AAe?$AA?9?$AAs?$AAi?$AAm?$AAp?$AAl?$AAi?$AAf?$AAi?$AAe?$AAd?$AA?$AA@ 1003774c     libucrt:get_qualified_locale.obj
 0002:00007774       ??_C@_1CE@GAJNDCKG@?$AAc?$AAh?$AAi?$AAn?$AAe?$AAs?$AAe?$AA?9?$AAs?$AAi?$AAn?$AAg?$AAa?$AAp?$AAo?$AAr?$AAe?$AA?$AA@ 10037774     libucrt:get_qualified_locale.obj
 0002:00007798       ??_C@_1CI@PAJPIOOD@?$AAc?$AAh?$AAi?$AAn?$AAe?$AAs?$AAe?$AA?9?$AAt?$AAr?$AAa?$AAd?$AAi?$AAt?$AAi?$AAo?$AAn?$AAa?$AAl?$AA?$AA@ 10037798     libucrt:get_qualified_locale.obj
 0002:000077c0       ??_C@_1BM@NILJBMMD@?$AAd?$AAu?$AAt?$AAc?$AAh?$AA?9?$AAb?$AAe?$AAl?$AAg?$AAi?$AAa?$AAn?$AA?$AA@ 100377c0     libucrt:get_qualified_locale.obj
 0002:000077dc       ??_C@_1CC@OOJPJNEJ@?$AAe?$AAn?$AAg?$AAl?$AAi?$AAs?$AAh?$AA?9?$AAa?$AAm?$AAe?$AAr?$AAi?$AAc?$AAa?$AAn?$AA?$AA@ 100377dc     libucrt:get_qualified_locale.obj
 0002:00007800       ??_C@_1BI@IOLFEEM@?$AAe?$AAn?$AAg?$AAl?$AAi?$AAs?$AAh?$AA?9?$AAa?$AAu?$AAs?$AA?$AA@ 10037800     libucrt:get_qualified_locale.obj
 0002:00007818       ??_C@_1BO@HFFNLENJ@?$AAe?$AAn?$AAg?$AAl?$AAi?$AAs?$AAh?$AA?9?$AAb?$AAe?$AAl?$AAi?$AAz?$AAe?$AA?$AA@ 10037818     libucrt:get_qualified_locale.obj
 0002:00007838       ??_C@_1BI@HAPKJMPO@?$AAe?$AAn?$AAg?$AAl?$AAi?$AAs?$AAh?$AA?9?$AAc?$AAa?$AAn?$AA?$AA@ 10037838     libucrt:get_qualified_locale.obj
 0002:00007850       ??_C@_1CE@HLNDMIOJ@?$AAe?$AAn?$AAg?$AAl?$AAi?$AAs?$AAh?$AA?9?$AAc?$AAa?$AAr?$AAi?$AAb?$AAb?$AAe?$AAa?$AAn?$AA?$AA@ 10037850     libucrt:get_qualified_locale.obj
 0002:00007874       ??_C@_1BI@LDHJHHAC@?$AAe?$AAn?$AAg?$AAl?$AAi?$AAs?$AAh?$AA?9?$AAi?$AAr?$AAe?$AA?$AA@ 10037874     libucrt:get_qualified_locale.obj
 0002:0000788c       ??_C@_1CA@NJMMCFOC@?$AAe?$AAn?$AAg?$AAl?$AAi?$AAs?$AAh?$AA?9?$AAj?$AAa?$AAm?$AAa?$AAi?$AAc?$AAa?$AA?$AA@ 1003788c     libucrt:get_qualified_locale.obj
 0002:000078ac       ??_C@_1BG@BHJEBBGG@?$AAe?$AAn?$AAg?$AAl?$AAi?$AAs?$AAh?$AA?9?$AAn?$AAz?$AA?$AA@ 100378ac     libucrt:get_qualified_locale.obj
 0002:000078c4       ??_C@_1CK@FGOEJJCO@?$AAe?$AAn?$AAg?$AAl?$AAi?$AAs?$AAh?$AA?9?$AAs?$AAo?$AAu?$AAt?$AAh?$AA?5?$AAa?$AAf?$AAr?$AAi?$AAc?$AAa?$AA?$AA@ 100378c4     libucrt:get_qualified_locale.obj
 0002:000078f0       ??_C@_1DE@PDBJPCJ@?$AAe?$AAn?$AAg?$AAl?$AAi?$AAs?$AAh?$AA?9?$AAt?$AAr?$AAi?$AAn?$AAi?$AAd?$AAa?$AAd?$AA?5?$AAy?$AA?5?$AAt?$AAo?$AAb?$AAa?$AAg?$AAo?$AA?$AA@ 100378f0     libucrt:get_qualified_locale.obj
 0002:00007924       ??_C@_1BG@JGCANDME@?$AAe?$AAn?$AAg?$AAl?$AAi?$AAs?$AAh?$AA?9?$AAu?$AAk?$AA?$AA@ 10037924     libucrt:get_qualified_locale.obj
 0002:0000793c       ??_C@_1BG@DINKMLE@?$AAe?$AAn?$AAg?$AAl?$AAi?$AAs?$AAh?$AA?9?$AAu?$AAs?$AA?$AA@ 1003793c     libucrt:get_qualified_locale.obj
 0002:00007954       ??_C@_1BI@NMFDBHJE@?$AAe?$AAn?$AAg?$AAl?$AAi?$AAs?$AAh?$AA?9?$AAu?$AAs?$AAa?$AA?$AA@ 10037954     libucrt:get_qualified_locale.obj
 0002:0000796c       ??_C@_1BO@OIHKJKII@?$AAf?$AAr?$AAe?$AAn?$AAc?$AAh?$AA?9?$AAb?$AAe?$AAl?$AAg?$AAi?$AAa?$AAn?$AA?$AA@ 1003796c     libucrt:get_qualified_locale.obj
 0002:0000798c       ??_C@_1CA@NKAELJKI@?$AAf?$AAr?$AAe?$AAn?$AAc?$AAh?$AA?9?$AAc?$AAa?$AAn?$AAa?$AAd?$AAi?$AAa?$AAn?$AA?$AA@ 1003798c     libucrt:get_qualified_locale.obj
 0002:000079ac       ??_C@_1CE@MGKCNLGN@?$AAf?$AAr?$AAe?$AAn?$AAc?$AAh?$AA?9?$AAl?$AAu?$AAx?$AAe?$AAm?$AAb?$AAo?$AAu?$AAr?$AAg?$AA?$AA@ 100379ac     libucrt:get_qualified_locale.obj
 0002:000079d0       ??_C@_1BK@CEGEAILM@?$AAf?$AAr?$AAe?$AAn?$AAc?$AAh?$AA?9?$AAs?$AAw?$AAi?$AAs?$AAs?$AA?$AA@ 100379d0     libucrt:get_qualified_locale.obj
 0002:000079ec       ??_C@_1CA@PAFKEOCC@?$AAg?$AAe?$AAr?$AAm?$AAa?$AAn?$AA?9?$AAa?$AAu?$AAs?$AAt?$AAr?$AAi?$AAa?$AAn?$AA?$AA@ 100379ec     libucrt:get_qualified_locale.obj
 0002:00007a0c       ??_C@_1CI@HCFHGOFD@?$AAg?$AAe?$AAr?$AAm?$AAa?$AAn?$AA?9?$AAl?$AAi?$AAc?$AAh?$AAt?$AAe?$AAn?$AAs?$AAt?$AAe?$AAi?$AAn?$AA?$AA@ 10037a0c     libucrt:get_qualified_locale.obj
 0002:00007a34       ??_C@_1CE@FEDDNPDG@?$AAg?$AAe?$AAr?$AAm?$AAa?$AAn?$AA?9?$AAl?$AAu?$AAx?$AAe?$AAm?$AAb?$AAo?$AAu?$AAr?$AAg?$AA?$AA@ 10037a34     libucrt:get_qualified_locale.obj
 0002:00007a58       ??_C@_1BK@LIMINNMN@?$AAg?$AAe?$AAr?$AAm?$AAa?$AAn?$AA?9?$AAs?$AAw?$AAi?$AAs?$AAs?$AA?$AA@ 10037a58     libucrt:get_qualified_locale.obj
 0002:00007a74       ??_C@_1BM@LGMDBEPD@?$AAi?$AAr?$AAi?$AAs?$AAh?$AA?9?$AAe?$AAn?$AAg?$AAl?$AAi?$AAs?$AAh?$AA?$AA@ 10037a74     libucrt:get_qualified_locale.obj
 0002:00007a90       ??_C@_1BM@NNCFBAEE@?$AAi?$AAt?$AAa?$AAl?$AAi?$AAa?$AAn?$AA?9?$AAs?$AAw?$AAi?$AAs?$AAs?$AA?$AA@ 10037a90     libucrt:get_qualified_locale.obj
 0002:00007aac       ??_C@_1BE@FEDJNPIB@?$AAn?$AAo?$AAr?$AAw?$AAe?$AAg?$AAi?$AAa?$AAn?$AA?$AA@ 10037aac     libucrt:get_qualified_locale.obj
 0002:00007ac0       ??_C@_1CC@CILKDEIE@?$AAn?$AAo?$AAr?$AAw?$AAe?$AAg?$AAi?$AAa?$AAn?$AA?9?$AAb?$AAo?$AAk?$AAm?$AAa?$AAl?$AA?$AA@ 10037ac0     libucrt:get_qualified_locale.obj
 0002:00007ae4       ??_C@_1CE@DHMMHEPL@?$AAn?$AAo?$AAr?$AAw?$AAe?$AAg?$AAi?$AAa?$AAn?$AA?9?$AAn?$AAy?$AAn?$AAo?$AAr?$AAs?$AAk?$AA?$AA@ 10037ae4     libucrt:get_qualified_locale.obj
 0002:00007b08       ??_C@_1CK@OPNMHECD@?$AAp?$AAo?$AAr?$AAt?$AAu?$AAg?$AAu?$AAe?$AAs?$AAe?$AA?9?$AAb?$AAr?$AAa?$AAz?$AAi?$AAl?$AAi?$AAa?$AAn?$AA?$AA@ 10037b08     libucrt:get_qualified_locale.obj
 0002:00007b34       ??_C@_1CE@KEEHCDB@?$AAs?$AAp?$AAa?$AAn?$AAi?$AAs?$AAh?$AA?9?$AAa?$AAr?$AAg?$AAe?$AAn?$AAt?$AAi?$AAn?$AAa?$AA?$AA@ 10037b34     libucrt:get_qualified_locale.obj
 0002:00007b58       ??_C@_1CA@GIAOLHJD@?$AAs?$AAp?$AAa?$AAn?$AAi?$AAs?$AAh?$AA?9?$AAb?$AAo?$AAl?$AAi?$AAv?$AAi?$AAa?$AA?$AA@ 10037b58     libucrt:get_qualified_locale.obj
 0002:00007b78       ??_C@_1BM@OJNDFNPD@?$AAs?$AAp?$AAa?$AAn?$AAi?$AAs?$AAh?$AA?9?$AAc?$AAh?$AAi?$AAl?$AAe?$AA?$AA@ 10037b78     libucrt:get_qualified_locale.obj
 0002:00007b94       ??_C@_1CC@OCOLPALL@?$AAs?$AAp?$AAa?$AAn?$AAi?$AAs?$AAh?$AA?9?$AAc?$AAo?$AAl?$AAo?$AAm?$AAb?$AAi?$AAa?$AA?$AA@ 10037b94     libucrt:get_qualified_locale.obj
 0002:00007bb8       ??_C@_1CG@BPOFMKBB@?$AAs?$AAp?$AAa?$AAn?$AAi?$AAs?$AAh?$AA?9?$AAc?$AAo?$AAs?$AAt?$AAa?$AA?5?$AAr?$AAi?$AAc?$AAa?$AA?$AA@ 10037bb8     libucrt:get_qualified_locale.obj
 0002:00007be0       ??_C@_1DG@IGOBAPBB@?$AAs?$AAp?$AAa?$AAn?$AAi?$AAs?$AAh?$AA?9?$AAd?$AAo?$AAm?$AAi?$AAn?$AAi?$AAc?$AAa?$AAn?$AA?5?$AAr?$AAe?$AAp?$AAu?$AAb?$AAl?$AAi?$AAc?$AA?$AA@ 10037be0     libucrt:get_qualified_locale.obj
 0002:00007c18       ??_C@_1CA@JHAPGEGI@?$AAs?$AAp?$AAa?$AAn?$AAi?$AAs?$AAh?$AA?9?$AAe?$AAc?$AAu?$AAa?$AAd?$AAo?$AAr?$AA?$AA@ 10037c18     libucrt:get_qualified_locale.obj
 0002:00007c38       ??_C@_1CI@LAPALJPP@?$AAs?$AAp?$AAa?$AAn?$AAi?$AAs?$AAh?$AA?9?$AAe?$AAl?$AA?5?$AAs?$AAa?$AAl?$AAv?$AAa?$AAd?$AAo?$AAr?$AA?$AA@ 10037c38     libucrt:get_qualified_locale.obj
 0002:00007c60       ??_C@_1CE@PDGBOFOM@?$AAs?$AAp?$AAa?$AAn?$AAi?$AAs?$AAh?$AA?9?$AAg?$AAu?$AAa?$AAt?$AAe?$AAm?$AAa?$AAl?$AAa?$AA?$AA@ 10037c60     libucrt:get_qualified_locale.obj
 0002:00007c84       ??_C@_1CC@NBEBAODI@?$AAs?$AAp?$AAa?$AAn?$AAi?$AAs?$AAh?$AA?9?$AAh?$AAo?$AAn?$AAd?$AAu?$AAr?$AAa?$AAs?$AA?$AA@ 10037c84     libucrt:get_qualified_locale.obj
 0002:00007ca8       ??_C@_1CA@LLKGHBMF@?$AAs?$AAp?$AAa?$AAn?$AAi?$AAs?$AAh?$AA?9?$AAm?$AAe?$AAx?$AAi?$AAc?$AAa?$AAn?$AA?$AA@ 10037ca8     libucrt:get_qualified_locale.obj
 0002:00007cc8       ??_C@_1BO@LKNDOIGD@?$AAs?$AAp?$AAa?$AAn?$AAi?$AAs?$AAh?$AA?9?$AAm?$AAo?$AAd?$AAe?$AAr?$AAn?$AA?$AA@ 10037cc8     libucrt:get_qualified_locale.obj
 0002:00007ce8       ??_C@_1CE@NMDMOEEB@?$AAs?$AAp?$AAa?$AAn?$AAi?$AAs?$AAh?$AA?9?$AAn?$AAi?$AAc?$AAa?$AAr?$AAa?$AAg?$AAu?$AAa?$AA?$AA@ 10037ce8     libucrt:get_qualified_locale.obj
 0002:00007d0c       ??_C@_1BO@LLCBEJGB@?$AAs?$AAp?$AAa?$AAn?$AAi?$AAs?$AAh?$AA?9?$AAp?$AAa?$AAn?$AAa?$AAm?$AAa?$AA?$AA@ 10037d0c     libucrt:get_qualified_locale.obj
 0002:00007d2c       ??_C@_1CC@FKPGGIHO@?$AAs?$AAp?$AAa?$AAn?$AAi?$AAs?$AAh?$AA?9?$AAp?$AAa?$AAr?$AAa?$AAg?$AAu?$AAa?$AAy?$AA?$AA@ 10037d2c     libucrt:get_qualified_locale.obj
 0002:00007d50       ??_C@_1BK@CDEIHOOP@?$AAs?$AAp?$AAa?$AAn?$AAi?$AAs?$AAh?$AA?9?$AAp?$AAe?$AAr?$AAu?$AA?$AA@ 10037d50     libucrt:get_qualified_locale.obj
 0002:00007d6c       ??_C@_1CI@GAHAKKGP@?$AAs?$AAp?$AAa?$AAn?$AAi?$AAs?$AAh?$AA?9?$AAp?$AAu?$AAe?$AAr?$AAt?$AAo?$AA?5?$AAr?$AAi?$AAc?$AAo?$AA?$AA@ 10037d6c     libucrt:get_qualified_locale.obj
 0002:00007d94       ??_C@_1CA@NKJBCAGP@?$AAs?$AAp?$AAa?$AAn?$AAi?$AAs?$AAh?$AA?9?$AAu?$AAr?$AAu?$AAg?$AAu?$AAa?$AAy?$AA?$AA@ 10037d94     libucrt:get_qualified_locale.obj
 0002:00007db4       ??_C@_1CE@ODILCONM@?$AAs?$AAp?$AAa?$AAn?$AAi?$AAs?$AAh?$AA?9?$AAv?$AAe?$AAn?$AAe?$AAz?$AAu?$AAe?$AAl?$AAa?$AA?$AA@ 10037db4     libucrt:get_qualified_locale.obj
 0002:00007dd8       ??_C@_1CA@OBNMCGFO@?$AAs?$AAw?$AAe?$AAd?$AAi?$AAs?$AAh?$AA?9?$AAf?$AAi?$AAn?$AAl?$AAa?$AAn?$AAd?$AA?$AA@ 10037dd8     libucrt:get_qualified_locale.obj
 0002:00007df8       ??_C@_1M@PIPDDPPI@?$AAs?$AAw?$AAi?$AAs?$AAs?$AA?$AA@ 10037df8     libucrt:get_qualified_locale.obj
 0002:00007e04       ??_C@_15GMFIMNFM@?$AAu?$AAs?$AA?$AA@ 10037e04     libucrt:get_qualified_locale.obj
 0002:00007e0c       ??_C@_17HAEBFAGL@?$AAu?$AAs?$AAa?$AA?$AA@ 10037e0c     libucrt:get_qualified_locale.obj
 0002:00007e14       ??_C@_1BA@DPFJEPHB@?$AAa?$AAm?$AAe?$AAr?$AAi?$AAc?$AAa?$AA?$AA@ 10037e14     libucrt:get_qualified_locale.obj
 0002:00007e24       ??_C@_1BA@ELOGGFK@?$AAb?$AAr?$AAi?$AAt?$AAa?$AAi?$AAn?$AA?$AA@ 10037e24     libucrt:get_qualified_locale.obj
 0002:00007e34       ??_C@_1M@GHBGIGDA@?$AAc?$AAh?$AAi?$AAn?$AAa?$AA?$AA@ 10037e34     libucrt:get_qualified_locale.obj
 0002:00007e40       ??_C@_1M@NCHEJOPO@?$AAc?$AAz?$AAe?$AAc?$AAh?$AA?$AA@ 10037e40     libucrt:get_qualified_locale.obj
 0002:00007e4c       ??_C@_1BA@BKPAPBLA@?$AAe?$AAn?$AAg?$AAl?$AAa?$AAn?$AAd?$AA?$AA@ 10037e4c     libucrt:get_qualified_locale.obj
 0002:00007e5c       ??_C@_1BM@HKBCKIPC@?$AAg?$AAr?$AAe?$AAa?$AAt?$AA?5?$AAb?$AAr?$AAi?$AAt?$AAa?$AAi?$AAn?$AA?$AA@ 10037e5c     libucrt:get_qualified_locale.obj
 0002:00007e78       ??_C@_1BA@PPCHPGJB@?$AAh?$AAo?$AAl?$AAl?$AAa?$AAn?$AAd?$AA?$AA@ 10037e78     libucrt:get_qualified_locale.obj
 0002:00007e88       ??_C@_1BE@JBMPEGDG@?$AAh?$AAo?$AAn?$AAg?$AA?9?$AAk?$AAo?$AAn?$AAg?$AA?$AA@ 10037e88     libucrt:get_qualified_locale.obj
 0002:00007e9c       ??_C@_1BI@KOELBBPJ@?$AAn?$AAe?$AAw?$AA?9?$AAz?$AAe?$AAa?$AAl?$AAa?$AAn?$AAd?$AA?$AA@ 10037e9c     libucrt:get_qualified_locale.obj
 0002:00007eb4       ??_C@_15HIEBHAIO@?$AAn?$AAz?$AA?$AA@ 10037eb4     libucrt:get_qualified_locale.obj
 0002:00007ebc       ??_C@_1BC@CHBCPFPI@?$AAp?$AAr?$AA?5?$AAc?$AAh?$AAi?$AAn?$AAa?$AA?$AA@ 10037ebc     libucrt:get_qualified_locale.obj
 0002:00007ed0       ??_C@_1BC@JAOIIFKD@?$AAp?$AAr?$AA?9?$AAc?$AAh?$AAi?$AAn?$AAa?$AA?$AA@ 10037ed0     libucrt:get_qualified_locale.obj
 0002:00007ee4       ??_C@_1BI@BEHPPHKC@?$AAp?$AAu?$AAe?$AAr?$AAt?$AAo?$AA?9?$AAr?$AAi?$AAc?$AAo?$AA?$AA@ 10037ee4     libucrt:get_qualified_locale.obj
 0002:00007efc       ??_C@_1O@PAEOFKDI@?$AAs?$AAl?$AAo?$AAv?$AAa?$AAk?$AA?$AA@ 10037efc     libucrt:get_qualified_locale.obj
 0002:00007f0c       ??_C@_1BK@FIHMCKAM@?$AAs?$AAo?$AAu?$AAt?$AAh?$AA?5?$AAa?$AAf?$AAr?$AAi?$AAc?$AAa?$AA?$AA@ 10037f0c     libucrt:get_qualified_locale.obj
 0002:00007f28       ??_C@_1BI@NAEOODKB@?$AAs?$AAo?$AAu?$AAt?$AAh?$AA?5?$AAk?$AAo?$AAr?$AAe?$AAa?$AA?$AA@ 10037f28     libucrt:get_qualified_locale.obj
 0002:00007f40       ??_C@_1BK@FBDGGIFF@?$AAs?$AAo?$AAu?$AAt?$AAh?$AA?9?$AAa?$AAf?$AAr?$AAi?$AAc?$AAa?$AA?$AA@ 10037f40     libucrt:get_qualified_locale.obj
 0002:00007f5c       ??_C@_1BI@GHLEJDPK@?$AAs?$AAo?$AAu?$AAt?$AAh?$AA?9?$AAk?$AAo?$AAr?$AAe?$AAa?$AA?$AA@ 10037f5c     libucrt:get_qualified_locale.obj
 0002:00007f74       ??_C@_1CE@PLHLOMJF@?$AAt?$AAr?$AAi?$AAn?$AAi?$AAd?$AAa?$AAd?$AA?5?$AA?$CG?$AA?5?$AAt?$AAo?$AAb?$AAa?$AAg?$AAo?$AA?$AA@ 10037f74     libucrt:get_qualified_locale.obj
 0002:00007f98       ??_C@_1BO@MODIMHHI@?$AAu?$AAn?$AAi?$AAt?$AAe?$AAd?$AA?9?$AAk?$AAi?$AAn?$AAg?$AAd?$AAo?$AAm?$AA?$AA@ 10037f98     libucrt:get_qualified_locale.obj
 0002:00007fb8       ??_C@_1BM@FFHJONBJ@?$AAu?$AAn?$AAi?$AAt?$AAe?$AAd?$AA?9?$AAs?$AAt?$AAa?$AAt?$AAe?$AAs?$AA?$AA@ 10037fb8     libucrt:get_qualified_locale.obj
 0002:00007fd8       ___acrt_rg_language        10037fd8     libucrt:get_qualified_locale.obj
 0002:000082e4       ___acrt_rg_language_count  100382e4     libucrt:get_qualified_locale.obj
 0002:000082e8       ___acrt_rg_country         100382e8     libucrt:get_qualified_locale.obj
 0002:000083fc       ___acrt_rg_country_count   100383fc     libucrt:get_qualified_locale.obj
 0002:00008400       ??_C@_17DNCLJFIF@?$AAA?$AAC?$AAP?$AA?$AA@ 10038400     libucrt:get_qualified_locale.obj
 0002:00008408       ??_C@_17CIKBIHLH@?$AAO?$AAC?$AAP?$AA?$AA@ 10038408     libucrt:get_qualified_locale.obj
 0002:00008410       ___rglangidNotDefault      10038410     libucrt:getqloc_downlevel.obj
 0002:00008488       ??_C@_1BA@BALFACEM@?$AAC?$AAO?$AAN?$AAO?$AAU?$AAT?$AA$?$AA?$AA@ 10038488     libucrt:initcon.obj
 0002:000085a0       __infinity                 100385a0     libucrt:87tran.obj
 0002:000085aa       __minfinity                100385aa     libucrt:87tran.obj
 0002:000085b4       __logemax                  100385b4     libucrt:87tran.obj
 0002:000085da       __OP_EXPjmptab             100385da     libucrt:87tran.obj
 0002:00008600       ___acrt_log10_table_t      10038600     libucrt:log10_tables.obj
 0002:00008a10       ___acrt_log10_table_cb     10038a10     libucrt:log10_tables.obj
 0002:00008e20       __real@3fe0000000000000    10038e20     libucrt:powhlp.obj
 0002:00008e28       ??_C@_1BK@DBDEIDLH@?$AAK?$AAE?$AAR?$AAN?$AAE?$AAL?$AA3?$AA2?$AA?4?$AAD?$AAL?$AAL?$AA?$AA@ 10038e28     DelayImp:delayhlp.obj
 0002:00008e48       __load_config_used         10038e48     LIBCMT:loadcfg.obj
 0002:00008ea4       ??_C@_07OMHPLOJF@?4?1addon?$AA@ 10038ea4     addon.obj
 0002:00008eac       ??_C@_0BB@IEADICIF@getDocumentAsync?$AA@ 10038eac     addon.obj
 0002:00008ec0       ??_C@_0BC@JMFLIMJM@saveDocumentAsync?$AA@ 10038ec0     addon.obj
 0002:00008ed4       ??_C@_0BE@OMAOCOEC@deleteDocumentAsync?$AA@ 10038ed4     addon.obj
 0002:00008ee8       ??_C@_0BK@NCFFIOAG@makeResponseDocumentAsync?$AA@ 10038ee8     addon.obj
 0002:00008f04       ??_C@_0BK@LOFKLBNM@getResponseDocumentsAsync?$AA@ 10038f04     addon.obj
 0002:00008f20       ??_C@_0BH@LFPJKOHO@replicateDatabaseAsync?$AA@ 10038f20     addon.obj
 0002:00008f38       ??_C@_0N@OINHKMBG@getViewAsync?$AA@ 10038f38     addon.obj
 0002:00008f48       ??_C@_0M@HMPGGPPO@initSession?$AA@ 10038f48     addon.obj
 0002:00008f54       ??_C@_0M@BCENIKJN@termSession?$AA@ 10038f54     addon.obj
 0002:00008f60       ??_C@_0BA@BCKMGOBK@?4?4?2src?2addon?4cc?$AA@ 10038f60     addon.obj
 0002:00008f70       ??_C@_05ONJGPJEO@addon?$AA@ 10038f70     addon.obj
 0002:00008f78       ??_C@_0BC@BDKFLDHL@unknown?5exception?$AA@ 10038f78     DataHelper.obj
 0002:00008f8c       ??_C@_0BA@ELKIONDK@bad?5locale?5name?$AA@ 10038f8c     DataHelper.obj
 0002:00008f9c       ??_C@_00CNPNBAHC@?$AA@     10038f9c     DataHelper.obj
 0002:00008fa0       ??_C@_02LMMGGCAJ@?3?5?$AA@ 10038fa0     DataHelper.obj
 0002:00008fa4       ??_C@_08LLGCOLLL@iostream?$AA@ 10038fa4     DataHelper.obj
 0002:00008fb0       ??_C@_0BG@PADBLCHM@iostream?5stream?5error?$AA@ 10038fb0     DataHelper.obj
 0002:00008fc8       ??_C@_0BF@PHHKMMFD@ios_base?3?3badbit?5set?$AA@ 10038fc8     DataHelper.obj
 0002:00008fe0       ??_C@_0BG@FMKFHCIL@ios_base?3?3failbit?5set?$AA@ 10038fe0     DataHelper.obj
 0002:00008ff8       ??_C@_0BF@OOHOMBOF@ios_base?3?3eofbit?5set?$AA@ 10038ff8     DataHelper.obj
 0002:00009010       ??_C@_0BA@JFNIOLAK@string?5too?5long?$AA@ 10039010     DataHelper.obj
 0002:00009020       ??_C@_1KK@ODBJFIIC@?$AAc?$AA?3?$AA?2?$AAu?$AAs?$AAe?$AAr?$AAs?$AA?2?$AAn?$AAi?$AAl?$AAs?$AAt?$AAa?$AAr?$AAj?$AAe?$AAi?$AA?2?$AAd?$AAo?$AAc?$AAu?$AAm?$AAe?$AAn?$AAt?$AAs?$AA?2?$AAu?$AAt@ 10039020     DataHelper.obj
 0002:000090d0       ??_C@_1FK@CBGIJHDF@?$AAv?$AAa?$AAl?$AAu?$AAe?$AA?4?$AAs?$AAi?$AAz?$AAe?$AA?$CI?$AA?$CJ?$AA?5?$AA?$DM?$AA?$DN?$AA?5?$AAI?$AAN?$AAT?$AA_?$AAM?$AAA?$AAX?$AA?5?$AA?$CG?$AA?$CG?$AA?5?$AA?$CC?$AAs?$AAt?$AAr?$AAi@ 100390d0     DataHelper.obj
 0002:0000912c       ??_C@_0BA@DGAOFEFG@Handle?5Error?3?5?5?$AA@ 1003912c     DataHelper.obj
 0002:0000913c       ??_C@_0BD@OLBABOEK@vector?$DMT?$DO?5too?5long?$AA@ 1003913c     DataHelper.obj
 0002:00009150       ??_C@_0BI@CFPLBAOH@invalid?5string?5position?$AA@ 10039150     DataHelper.obj
 0002:00009168       ??_7exception@stdext@@6B@  10039168     DataHelper.obj
 0002:00009174       ??_C@_07JCMGEKCK@deleted?$AA@ 10039174     delete_document_async.obj
 0002:0000917c       ??_C@_06DJIHEMFI@status?$AA@ 1003917c     delete_document_async.obj
 0002:00009184       ??_C@_0N@PNILBDOI@errorMessage?$AA@ 10039184     delete_document_async.obj
 0002:00009194       ??_C@_06HJHJCKIO@server?$AA@ 10039194     delete_document_async.obj
 0002:0000919c       ??_C@_08PBOCEOLL@database?$AA@ 1003919c     delete_document_async.obj
 0002:000091a8       ??_7AsyncWorker@Nan@@6B@   100391a8     delete_document_async.obj
 0002:000091c0       ??_7LNSmartPtr@@6B@        100391c0     delete_document_async.obj
 0002:000091d4       ??_7LNDatabase@@6B@        100391d4     delete_document_async.obj
 0002:000091e8       ??_7LNString@@6B@          100391e8     delete_document_async.obj
 0002:000091fc       ??_7DeleteDocumentWorker@@6B@ 100391fc     delete_document_async.obj
 0002:00009214       ??_C@_05ONDJOFLD@?$EAunid?$AA@ 10039214     document_async.obj
 0002:0000921c       ??_C@_0BE@JONHPENG@map?1set?$DMT?$DO?5too?5long?$AA@ 1003921c     document_async.obj
 0002:00009230       ??_7DocumentWorker@@6B@    10039230     document_async.obj
 0002:00009248       ??_7ResponseDocumentsWorker@@6B@ 10039248     getresponse_documents.obj
 0002:00009260       ??_7LNDocumentArray@@6B@   10039260     getresponse_documents.obj
 0002:000092b8       ??_C@_0CB@PCKCEKLG@error?5getting?5date?5from?5datetime@ 100392b8     ItemValue.obj
 0002:000092dc       ??_7LNDatetimes@@6B@       100392dc     ItemValue.obj
 0002:000092f0       ??_7LNNumbers@@6B@         100392f0     ItemValue.obj
 0002:00009304       ??_7LNDatetime@@6B@        10039304     ItemValue.obj
 0002:00009320       ??_7LNText@@6B@            10039320     ItemValue.obj
 0002:00009334       ??_C@_0O@JNNGLPPA@made?5response?$AA@ 10039334     makeresponse_document.obj
 0002:00009344       ??_7MakeResponseDocumentWorker@@6B@ 10039344     makeresponse_document.obj
 0002:0000935c       ??_C@_0L@EPHHFJKF@Replicate?3?$AA@ 1003935c     replicate_database_async.obj
 0002:00009368       ??_C@_0BF@GMIPDMLH@Starting?5replication?$AA@ 10039368     replicate_database_async.obj
 0002:00009380       ??_C@_0BE@MJENDGKE@Starting?5replicated?$AA@ 10039380     replicate_database_async.obj
 0002:00009394       ??_C@_0BC@EEOAPOAO@ReplicateError?3?5?5?$AA@ 10039394     replicate_database_async.obj
 0002:000093a8       ??_C@_0L@ONNDKGKI@replicated?$AA@ 100393a8     replicate_database_async.obj
 0002:000093b4       ??_C@_09JHDINPGA@docsAdded?$AA@ 100393b4     replicate_database_async.obj
 0002:000093c0       ??_7LNItem@@6B@            100393c0     replicate_database_async.obj
 0002:000093d4       ??_7ReplicateDatabaseWorker@@6B@ 100393d4     replicate_database_async.obj
 0002:000093ec       ??_C@_0BL@FIOIHNBL@Error?5creating?5date?5struct?$AA@ 100393ec     save_document_async.obj
 0002:00009408       ??_7SaveDocumentWorker@@6B@ 10039408     save_document_async.obj
 0002:00009420       ??_C@_05LAPONLG@false?$AA@ 10039420     view_async.obj
 0002:00009428       ??_C@_04LOAJBDKD@true?$AA@ 10039428     view_async.obj
 0002:00009430       ??_C@_09CHDIENGJ@?5?0?5find?3?5?$AA@ 10039430     view_async.obj
 0002:0000943c       ??_C@_0L@MIMBDKNL@category?3?5?$AA@ 1003943c     view_async.obj
 0002:00009448       ??_C@_05FBHGNAK@run?50?$AA@ 10039448     view_async.obj
 0002:00009450       ??_C@_07FKIKINEK@run?50?05?$AA@ 10039450     view_async.obj
 0002:00009458       ??_C@_07JMNNBLIK@found?0?5?$AA@ 10039458     view_async.obj
 0002:00009460       ??_C@_07OMKACHGJ@run?50?48?$AA@ 10039460     view_async.obj
 0002:00009468       ??_C@_05BMAMFMEL@run?51?$AA@ 10039468     view_async.obj
 0002:00009470       ??_C@_05DHCBAPII@run?52?$AA@ 10039470     view_async.obj
 0002:00009478       ??_C@_05CODKDOMJ@run?53?$AA@ 10039478     view_async.obj
 0002:00009480       ??_C@_05GBHLKIAO@run?54?$AA@ 10039480     view_async.obj
 0002:00009488       ??_C@_07LCAAALHH@run?54?41?$AA@ 10039488     view_async.obj
 0002:00009490       ??_C@_07JJCNFILE@run?54?42?$AA@ 10039490     view_async.obj
 0002:00009498       ??_C@_05HIGAJJEP@run?55?$AA@ 10039498     view_async.obj
 0002:000094a0       ??_C@_05FDENMKIM@run?56?$AA@ 100394a0     view_async.obj
 0002:000094a8       ??_C@_05EKFGPLMN@run?57?$AA@ 100394a8     view_async.obj
 0002:000094b0       ??_C@_05MNMOOHAC@run?58?$AA@ 100394b0     view_async.obj
 0002:000094b8       ??_C@_05NENFNGED@run?59?$AA@ 100394b8     view_async.obj
 0002:000094c0       ??_C@_06DOFEKCLH@run?510?$AA@ 100394c0     view_async.obj
 0002:000094c8       ??_C@_06CHEPJDPG@run?511?$AA@ 100394c8     view_async.obj
 0002:000094d0       ??_C@_06MGCMADF@run?512?$AA@ 100394d0     view_async.obj
 0002:000094d8       ??_C@_04CHADEDPO@view?$AA@ 100394d8     view_async.obj
 0002:000094e0       ??_C@_08MBJIKOEN@category?$AA@ 100394e0     view_async.obj
 0002:000094ec       ??_C@_04CKFJHKAP@find?$AA@ 100394ec     view_async.obj
 0002:000094f4       ??_C@_02BBAHNLBA@?$CFp?$AA@ 100394f4     view_async.obj
 0002:000094f8       ??_C@_02CLHGNPPK@Lu?$AA@   100394f8     view_async.obj
 0002:000094fc       ??_C@_02HIKPPMOK@Ld?$AA@   100394fc     view_async.obj
 0002:00009500       ??_C@_02BDDLJJBK@lu?$AA@   10039500     view_async.obj
 0002:00009504       ??_C@_02EAOCLKAK@ld?$AA@   10039504     view_async.obj
 0002:00009508       ??_C@_02MDKMJEGG@eE?$AA@   10039508     view_async.obj
 0002:0000950c       ??_C@_02OOPEBDOJ@pP?$AA@   1003950c     view_async.obj
 0002:00009510       ??_7ViewWorker@@6B@        10039510     view_async.obj
 0002:00009528       ??_7LNVFEntry@@6B@         10039528     view_async.obj
 0002:0000953c       ??_7LNVFColumn@@6B@        1003953c     view_async.obj
 0002:00009550       ??_7LNVFNavigator@@6B@     10039550     view_async.obj
 0002:00009564       ??_7LNViewFolder@@6B@      10039564     view_async.obj
 0002:00009594       ??_C@_08HCOMDCCD@iojs?4exe?$AA@ 10039594     win_delay_load_hook.obj
 0002:000095a0       ??_C@_08JDDNMFDB@node?4exe?$AA@ 100395a0     win_delay_load_hook.obj
 0002:000095b0       __real@408f400000000000    100395b0     ItemValue.obj
 0002:000095b8       __real@4202a05f20000000    100395b8     view_async.obj
 0002:000095c0       __xmm@7fffffffffffffff7fffffffffffffff 100395c0     view_async.obj
 0002:000096b4       __tls_used                 100396b4     LIBCMT:tlssup.obj
 0002:000096cc       ??_R4exception@std@@6B@    100396cc     libcpmt:cout.obj
 0002:000096e0       ??_R3exception@std@@8      100396e0     libcpmt:cout.obj
 0002:000096f0       ??_R2exception@std@@8      100396f0     libcpmt:cout.obj
 0002:000096f8       ??_R1A@?0A@EA@exception@std@@8 100396f8     libcpmt:cout.obj
 0002:00009714       ??_R4ios_base@std@@6B@     10039714     libcpmt:cout.obj
 0002:00009728       ??_R3ios_base@std@@8       10039728     libcpmt:cout.obj
 0002:00009738       ??_R2ios_base@std@@8       10039738     libcpmt:cout.obj
 0002:00009744       ??_R1A@?0A@EA@ios_base@std@@8 10039744     libcpmt:cout.obj
 0002:00009760       ??_R17?0A@EA@?$_Iosb@H@std@@8 10039760     libcpmt:cout.obj
 0002:0000977c       ??_R3?$_Iosb@H@std@@8      1003977c     libcpmt:cout.obj
 0002:0000978c       ??_R2?$_Iosb@H@std@@8      1003978c     libcpmt:cout.obj
 0002:00009794       ??_R1A@?0A@EA@?$_Iosb@H@std@@8 10039794     libcpmt:cout.obj
 0002:000097b0       ??_R4?$basic_ios@DU?$char_traits@D@std@@@std@@6B@ 100397b0     libcpmt:cout.obj
 0002:000097c4       ??_R3?$basic_ios@DU?$char_traits@D@std@@@std@@8 100397c4     libcpmt:cout.obj
 0002:000097d4       ??_R2?$basic_ios@DU?$char_traits@D@std@@@std@@8 100397d4     libcpmt:cout.obj
 0002:000097e4       ??_R1A@?0A@EA@?$basic_ios@DU?$char_traits@D@std@@@std@@8 100397e4     libcpmt:cout.obj
 0002:00009800       ??_R4?$basic_streambuf@DU?$char_traits@D@std@@@std@@6B@ 10039800     libcpmt:cout.obj
 0002:00009814       ??_R3?$basic_streambuf@DU?$char_traits@D@std@@@std@@8 10039814     libcpmt:cout.obj
 0002:00009824       ??_R2?$basic_streambuf@DU?$char_traits@D@std@@@std@@8 10039824     libcpmt:cout.obj
 0002:0000982c       ??_R1A@?0A@EA@?$basic_streambuf@DU?$char_traits@D@std@@@std@@8 1003982c     libcpmt:cout.obj
 0002:00009848       ??_R1A@A@3FA@?$basic_ios@DU?$char_traits@D@std@@@std@@8 10039848     libcpmt:cout.obj
 0002:00009864       ??_R1A@A@3EA@ios_base@std@@8 10039864     libcpmt:cout.obj
 0002:00009880       ??_R17A@3EA@?$_Iosb@H@std@@8 10039880     libcpmt:cout.obj
 0002:0000989c       ??_R4?$basic_ostream@DU?$char_traits@D@std@@@std@@6B@ 1003989c     libcpmt:cout.obj
 0002:000098b0       ??_R3?$basic_ostream@DU?$char_traits@D@std@@@std@@8 100398b0     libcpmt:cout.obj
 0002:000098c0       ??_R2?$basic_ostream@DU?$char_traits@D@std@@@std@@8 100398c0     libcpmt:cout.obj
 0002:000098d4       ??_R1A@?0A@EA@?$basic_ostream@DU?$char_traits@D@std@@@std@@8 100398d4     libcpmt:cout.obj
 0002:000098f0       ??_R4?$basic_filebuf@DU?$char_traits@D@std@@@std@@6B@ 100398f0     libcpmt:cout.obj
 0002:00009904       ??_R3?$basic_filebuf@DU?$char_traits@D@std@@@std@@8 10039904     libcpmt:cout.obj
 0002:00009914       ??_R2?$basic_filebuf@DU?$char_traits@D@std@@@std@@8 10039914     libcpmt:cout.obj
 0002:00009920       ??_R1A@?0A@EA@?$basic_filebuf@DU?$char_traits@D@std@@@std@@8 10039920     libcpmt:cout.obj
 0002:0000993c       ??_R4runtime_error@std@@6B@ 1003993c     libcpmt:cout.obj
 0002:00009950       ??_R3runtime_error@std@@8  10039950     libcpmt:cout.obj
 0002:00009960       ??_R2runtime_error@std@@8  10039960     libcpmt:cout.obj
 0002:0000996c       ??_R1A@?0A@EA@runtime_error@std@@8 1003996c     libcpmt:cout.obj
 0002:00009988       ??_R4bad_cast@std@@6B@     10039988     libcpmt:cout.obj
 0002:0000999c       ??_R3bad_cast@std@@8       1003999c     libcpmt:cout.obj
 0002:000099ac       ??_R2bad_cast@std@@8       100399ac     libcpmt:cout.obj
 0002:000099b8       ??_R1A@?0A@EA@bad_cast@std@@8 100399b8     libcpmt:cout.obj
 0002:000099d4       ??_R4_Facet_base@std@@6B@  100399d4     libcpmt:cout.obj
 0002:000099e8       ??_R3_Facet_base@std@@8    100399e8     libcpmt:cout.obj
 0002:000099f8       ??_R2_Facet_base@std@@8    100399f8     libcpmt:cout.obj
 0002:00009a00       ??_R1A@?0A@EA@_Facet_base@std@@8 10039a00     libcpmt:cout.obj
 0002:00009a1c       ??_R1A@?0A@EA@facet@locale@std@@8 10039a1c     libcpmt:cout.obj
 0002:00009a38       ??_R3facet@locale@std@@8   10039a38     libcpmt:cout.obj
 0002:00009a48       ??_R2facet@locale@std@@8   10039a48     libcpmt:cout.obj
 0002:00009a58       ??_R13?0A@EA@_Crt_new_delete@std@@8 10039a58     libcpmt:cout.obj
 0002:00009a74       ??_R3_Crt_new_delete@std@@8 10039a74     libcpmt:cout.obj
 0002:00009a84       ??_R2_Crt_new_delete@std@@8 10039a84     libcpmt:cout.obj
 0002:00009a8c       ??_R1A@?0A@EA@_Crt_new_delete@std@@8 10039a8c     libcpmt:cout.obj
 0002:00009aa8       ??_R3codecvt_base@std@@8   10039aa8     libcpmt:cout.obj
 0002:00009ab8       ??_R2codecvt_base@std@@8   10039ab8     libcpmt:cout.obj
 0002:00009acc       ??_R1A@?0A@EA@codecvt_base@std@@8 10039acc     libcpmt:cout.obj
 0002:00009ae8       ??_R3ctype_base@std@@8     10039ae8     libcpmt:cout.obj
 0002:00009af8       ??_R2ctype_base@std@@8     10039af8     libcpmt:cout.obj
 0002:00009b0c       ??_R1A@?0A@EA@ctype_base@std@@8 10039b0c     libcpmt:cout.obj
 0002:00009b28       ??_R4?$ctype@D@std@@6B@    10039b28     libcpmt:cout.obj
 0002:00009b3c       ??_R3?$ctype@D@std@@8      10039b3c     libcpmt:cout.obj
 0002:00009b4c       ??_R2?$ctype@D@std@@8      10039b4c     libcpmt:cout.obj
 0002:00009b64       ??_R1A@?0A@EA@?$ctype@D@std@@8 10039b64     libcpmt:cout.obj
 0002:00009b80       ??_R4error_category@std@@6B@ 10039b80     libcpmt:cout.obj
 0002:00009b94       ??_R3error_category@std@@8 10039b94     libcpmt:cout.obj
 0002:00009ba4       ??_R2error_category@std@@8 10039ba4     libcpmt:cout.obj
 0002:00009bac       ??_R1A@?0A@EA@error_category@std@@8 10039bac     libcpmt:cout.obj
 0002:00009bc8       ??_R4_System_error@std@@6B@ 10039bc8     libcpmt:cout.obj
 0002:00009bdc       ??_R3_System_error@std@@8  10039bdc     libcpmt:cout.obj
 0002:00009bec       ??_R2_System_error@std@@8  10039bec     libcpmt:cout.obj
 0002:00009bfc       ??_R1A@?0A@EA@_System_error@std@@8 10039bfc     libcpmt:cout.obj
 0002:00009c18       ??_R4system_error@std@@6B@ 10039c18     libcpmt:cout.obj
 0002:00009c2c       ??_R3system_error@std@@8   10039c2c     libcpmt:cout.obj
 0002:00009c3c       ??_R2system_error@std@@8   10039c3c     libcpmt:cout.obj
 0002:00009c50       ??_R1A@?0A@EA@system_error@std@@8 10039c50     libcpmt:cout.obj
 0002:00009c6c       ??_R3_Generic_error_category@std@@8 10039c6c     libcpmt:cout.obj
 0002:00009c7c       ??_R2_Generic_error_category@std@@8 10039c7c     libcpmt:cout.obj
 0002:00009c88       ??_R1A@?0A@EA@_Generic_error_category@std@@8 10039c88     libcpmt:cout.obj
 0002:00009ca4       ??_R4_Iostream_error_category@std@@6B@ 10039ca4     libcpmt:cout.obj
 0002:00009cb8       ??_R3_Iostream_error_category@std@@8 10039cb8     libcpmt:cout.obj
 0002:00009cc8       ??_R2_Iostream_error_category@std@@8 10039cc8     libcpmt:cout.obj
 0002:00009cd8       ??_R1A@?0A@EA@_Iostream_error_category@std@@8 10039cd8     libcpmt:cout.obj
 0002:00009cf4       ??_R4failure@ios_base@std@@6B@ 10039cf4     libcpmt:cout.obj
 0002:00009d08       ??_R3failure@ios_base@std@@8 10039d08     libcpmt:cout.obj
 0002:00009d18       ??_R2failure@ios_base@std@@8 10039d18     libcpmt:cout.obj
 0002:00009d30       ??_R1A@?0A@EA@failure@ios_base@std@@8 10039d30     libcpmt:cout.obj
 0002:00009d4c       ??_R4?$codecvt@DDU_Mbstatet@@@std@@6B@ 10039d4c     libcpmt:cout.obj
 0002:00009d60       ??_R3?$codecvt@DDU_Mbstatet@@@std@@8 10039d60     libcpmt:cout.obj
 0002:00009d70       ??_R2?$codecvt@DDU_Mbstatet@@@std@@8 10039d70     libcpmt:cout.obj
 0002:00009d88       ??_R1A@?0A@EA@?$codecvt@DDU_Mbstatet@@@std@@8 10039d88     libcpmt:cout.obj
 0002:00009da4       ??_R4_Locimp@locale@std@@6B@ 10039da4     libcpmt:locale0.obj
 0002:00009db8       ??_R3_Locimp@locale@std@@8 10039db8     libcpmt:locale0.obj
 0002:00009dc8       ??_R2_Locimp@locale@std@@8 10039dc8     libcpmt:locale0.obj
 0002:00009ddc       ??_R1A@?0A@EA@_Locimp@locale@std@@8 10039ddc     libcpmt:locale0.obj
 0002:00009df8       ??_R4bad_alloc@std@@6B@    10039df8     libcpmt:xthrow.obj
 0002:00009e0c       ??_R3bad_alloc@std@@8      10039e0c     libcpmt:xthrow.obj
 0002:00009e1c       ??_R2bad_alloc@std@@8      10039e1c     libcpmt:xthrow.obj
 0002:00009e28       ??_R1A@?0A@EA@bad_alloc@std@@8 10039e28     libcpmt:xthrow.obj
 0002:00009e44       ??_R4logic_error@std@@6B@  10039e44     libcpmt:xthrow.obj
 0002:00009e58       ??_R3logic_error@std@@8    10039e58     libcpmt:xthrow.obj
 0002:00009e68       ??_R2logic_error@std@@8    10039e68     libcpmt:xthrow.obj
 0002:00009e74       ??_R1A@?0A@EA@logic_error@std@@8 10039e74     libcpmt:xthrow.obj
 0002:00009e90       ??_R4length_error@std@@6B@ 10039e90     libcpmt:xthrow.obj
 0002:00009ea4       ??_R3length_error@std@@8   10039ea4     libcpmt:xthrow.obj
 0002:00009eb4       ??_R2length_error@std@@8   10039eb4     libcpmt:xthrow.obj
 0002:00009ec4       ??_R1A@?0A@EA@length_error@std@@8 10039ec4     libcpmt:xthrow.obj
 0002:00009ee0       ??_R4out_of_range@std@@6B@ 10039ee0     libcpmt:xthrow.obj
 0002:00009ef4       ??_R3out_of_range@std@@8   10039ef4     libcpmt:xthrow.obj
 0002:00009f04       ??_R2out_of_range@std@@8   10039f04     libcpmt:xthrow.obj
 0002:00009f14       ??_R1A@?0A@EA@out_of_range@std@@8 10039f14     libcpmt:xthrow.obj
 0002:00009f30       ??_R4?$num_put@DV?$ostreambuf_iterator@DU?$char_traits@D@std@@@std@@@std@@6B@ 10039f30     libcpmt:locale.obj
 0002:00009f44       ??_R3?$num_put@DV?$ostreambuf_iterator@DU?$char_traits@D@std@@@std@@@std@@8 10039f44     libcpmt:locale.obj
 0002:00009f54       ??_R2?$num_put@DV?$ostreambuf_iterator@DU?$char_traits@D@std@@@std@@@std@@8 10039f54     libcpmt:locale.obj
 0002:00009f68       ??_R1A@?0A@EA@?$num_put@DV?$ostreambuf_iterator@DU?$char_traits@D@std@@@std@@@std@@8 10039f68     libcpmt:locale.obj
 0002:00009f84       ??_R4?$numpunct@D@std@@6B@ 10039f84     libcpmt:locale.obj
 0002:00009f98       ??_R3?$numpunct@D@std@@8   10039f98     libcpmt:locale.obj
 0002:00009fa8       ??_R2?$numpunct@D@std@@8   10039fa8     libcpmt:locale.obj
 0002:00009fbc       ??_R1A@?0A@EA@?$numpunct@D@std@@8 10039fbc     libcpmt:locale.obj
 0002:00009fd8       ??_R4type_info@@6B@        10039fd8     LIBCMT:std_type_info_static.obj
 0002:00009fec       ??_R3type_info@@8          10039fec     LIBCMT:std_type_info_static.obj
 0002:00009ffc       ??_R2type_info@@8          10039ffc     LIBCMT:std_type_info_static.obj
 0002:0000a004       ??_R1A@?0A@EA@type_info@@8 1003a004     LIBCMT:std_type_info_static.obj
 0002:0000a020       ??_R4bad_array_new_length@std@@6B@ 1003a020     LIBCMT:throw_bad_alloc.obj
 0002:0000a034       ??_R3bad_array_new_length@std@@8 1003a034     LIBCMT:throw_bad_alloc.obj
 0002:0000a044       ??_R2bad_array_new_length@std@@8 1003a044     LIBCMT:throw_bad_alloc.obj
 0002:0000a054       ??_R1A@?0A@EA@bad_array_new_length@std@@8 1003a054     LIBCMT:throw_bad_alloc.obj
 0002:0000a070       ??_R4bad_exception@std@@6B@ 1003a070     libvcruntime:frame.obj
 0002:0000a084       ??_R3bad_exception@std@@8  1003a084     libvcruntime:frame.obj
 0002:0000a094       ??_R2bad_exception@std@@8  1003a094     libvcruntime:frame.obj
 0002:0000a0a0       ??_R1A@?0A@EA@bad_exception@std@@8 1003a0a0     libvcruntime:frame.obj
 0002:0000a0c0       ___safe_se_handler_table   1003a0c0     <linker-defined>
 0002:0000a138       ?_TraceLoggingMetadata@?1??_TlgWrite@__vcrt_trace_logging_provider@@YAJPBU_TlgProvider_t@2@PBXPBU_GUID@@2IPAU_EVENT_DATA_DESCRIPTOR@@@Z@4U_TraceLoggingMetadata_t@2@B 1003a138     libvcruntime:telemetry.obj
 0002:0000a1eb       ?_TraceLoggingMetadataEnd@?1??_TlgWrite@__vcrt_trace_logging_provider@@YAJPBU_TlgProvider_t@2@PBXPBU_GUID@@2IPAU_EVENT_DATA_DESCRIPTOR@@@Z@4EB 1003a1eb     libvcruntime:telemetry.obj
 0002:0000a6e0       ___rtc_iaa                 1003a6e0     LIBCMT:_initsect_.obj
 0002:0000a6e4       ___rtc_izz                 1003a6e4     LIBCMT:_initsect_.obj
 0002:0000a6e8       ___rtc_taa                 1003a6e8     LIBCMT:_initsect_.obj
 0002:0000a6ec       ___rtc_tzz                 1003a6ec     LIBCMT:_initsect_.obj
 0002:0000ac30       __CT??_R0?AVexception@std@@@8??0exception@std@@QAE@ABV01@@Z12 1003ac30     libcpmt:cout.obj
 0002:0000ac4c       __TI2?AVbad_cast@std@@     1003ac4c     libcpmt:cout.obj
 0002:0000ac5c       __CTA2?AVbad_cast@std@@    1003ac5c     libcpmt:cout.obj
 0002:0000ac68       __CT??_R0?AVbad_cast@std@@@8??0bad_cast@std@@QAE@ABV01@@Z12 1003ac68     libcpmt:cout.obj
 0002:0000ad00       __TI2?AVbad_alloc@std@@    1003ad00     libcpmt:xthrow.obj
 0002:0000ad10       __CTA2?AVbad_alloc@std@@   1003ad10     libcpmt:xthrow.obj
 0002:0000ad1c       __CT??_R0?AVbad_alloc@std@@@8??0bad_alloc@std@@QAE@ABV01@@Z12 1003ad1c     libcpmt:xthrow.obj
 0002:0000ad38       __CT??_R0?AVlogic_error@std@@@8??0logic_error@std@@QAE@ABV01@@Z12 1003ad38     libcpmt:xthrow.obj
 0002:0000ad54       __TI3?AVlength_error@std@@ 1003ad54     libcpmt:xthrow.obj
 0002:0000ad64       __CTA3?AVlength_error@std@@ 1003ad64     libcpmt:xthrow.obj
 0002:0000ad74       __CT??_R0?AVlength_error@std@@@8??0length_error@std@@QAE@ABV01@@Z12 1003ad74     libcpmt:xthrow.obj
 0002:0000ad90       __TI3?AVout_of_range@std@@ 1003ad90     libcpmt:xthrow.obj
 0002:0000ada0       __CTA3?AVout_of_range@std@@ 1003ada0     libcpmt:xthrow.obj
 0002:0000adb0       __CT??_R0?AVout_of_range@std@@@8??0out_of_range@std@@QAE@ABV01@@Z12 1003adb0     libcpmt:xthrow.obj
 0002:0000ae4c       __TI3?AVbad_array_new_length@std@@ 1003ae4c     LIBCMT:throw_bad_alloc.obj
 0002:0000ae5c       __CTA3?AVbad_array_new_length@std@@ 1003ae5c     LIBCMT:throw_bad_alloc.obj
 0002:0000ae6c       __CT??_R0?AVbad_array_new_length@std@@@8??0bad_array_new_length@std@@QAE@ABV01@@Z12 1003ae6c     LIBCMT:throw_bad_alloc.obj
 0002:0000af8c       __TI2?AVbad_exception@std@@ 1003af8c     libvcruntime:frame.obj
 0002:0000af9c       __CTA2?AVbad_exception@std@@ 1003af9c     libvcruntime:frame.obj
 0002:0000afa8       __CT??_R0?AVbad_exception@std@@@8??0bad_exception@std@@QAE@ABV01@@Z12 1003afa8     libvcruntime:frame.obj
 0002:0000b514       __DELAY_IMPORT_DESCRIPTOR_node_exe 1003b514     node:node.exe
 0002:0000b534       __NULL_DELAY_IMPORT_DESCRIPTOR 1003b534     node:node.exe
 0002:0000b61c       \177node_NULL_THUNK_DATA_DLN 1003b61c     node:node.exe
 0002:0000c228       \177node_NULL_THUNK_DATA_DLB 1003c228     node:node.exe
 0002:0000c340       __IMPORT_DESCRIPTOR_KERNEL32 1003c340     kernel32:KERNEL32.dll
 0002:0000c354       __IMPORT_DESCRIPTOR_lcppn  1003c354     notescpp:lcppn.dll
 0002:0000c368       __IMPORT_DESCRIPTOR_ADVAPI32 1003c368     advapi32:ADVAPI32.dll
 0002:0000c37c       __NULL_IMPORT_DESCRIPTOR   1003c37c     kernel32:KERNEL32.dll
 0003:00000004       ?_Sync@ios_base@std@@0_NA  1003f004     libcpmt:ios.obj
 0003:00000010       ?_PJP_CPP_Copyright@@3PADA 1003f010     libcpmt:iosptrs.obj
 0003:00000068       __FDenorm                  1003f068     libcpmt:xfvalues.obj
 0003:00000078       __FInf                     1003f078     libcpmt:xfvalues.obj
 0003:00000088       __FNan                     1003f088     libcpmt:xfvalues.obj
 0003:00000098       __FSnan                    1003f098     libcpmt:xfvalues.obj
 0003:000000a8       __FEps                     1003f0a8     libcpmt:xfvalues.obj
 0003:000000b8       __FRteps                   1003f0b8     libcpmt:xfvalues.obj
 0003:000000c8       __FXbig                    1003f0c8     libcpmt:xfvalues.obj
 0003:000000d0       __Denorm                   1003f0d0     libcpmt:xvalues.obj
 0003:000000e0       __Hugeval                  1003f0e0     libcpmt:xvalues.obj
 0003:000000f0       __Inf                      1003f0f0     libcpmt:xvalues.obj
 0003:00000100       __Nan                      1003f100     libcpmt:xvalues.obj
 0003:00000110       __Snan                     1003f110     libcpmt:xvalues.obj
 0003:00000120       __Eps                      1003f120     libcpmt:xvalues.obj
 0003:00000130       __Rteps                    1003f130     libcpmt:xvalues.obj
 0003:00000140       __Xbig                     1003f140     libcpmt:xvalues.obj
 0003:00000148       __LDenorm                  1003f148     libcpmt:xlvalues.obj
 0003:00000158       __LInf                     1003f158     libcpmt:xlvalues.obj
 0003:00000168       __LNan                     1003f168     libcpmt:xlvalues.obj
 0003:00000178       __LSnan                    1003f178     libcpmt:xlvalues.obj
 0003:00000188       __LEps                     1003f188     libcpmt:xlvalues.obj
 0003:00000198       __LRteps                   1003f198     libcpmt:xlvalues.obj
 0003:000001a8       __LXbig                    1003f1a8     libcpmt:xlvalues.obj
 0003:000001b0       ___scrt_native_dllmain_reason 1003f1b0     LIBCMT:utility.obj
 0003:000001b4       __Init_global_epoch        1003f1b4     LIBCMT:thread_safe_statics.obj
 0003:000001b8       ___security_cookie_complement 1003f1b8     LIBCMT:gs_cookie.obj
 0003:000001bc       ___security_cookie         1003f1bc     LIBCMT:gs_cookie.obj
 0003:000001c0       __fltused                  1003f1c0     LIBCMT:fltused.obj
 0003:000001d0       ___isa_enabled             1003f1d0     LIBCMT:_cpu_disp_.obj
 0003:00000230       __NLG_Destination          1003f230     libvcruntime:_exsup_.obj
 0003:00000240       ___abort_behavior          1003f240     libucrt:abort.obj
 0003:00000250       ___acrt_lconv_static_decimal 1003f250     libucrt:localeconv.obj
 0003:00000254       ___acrt_lconv_static_W_decimal 1003f254     libucrt:localeconv.obj
 0003:00000258       ___acrt_lconv_c            1003f258     libucrt:localeconv.obj
 0003:000002a8       ___acrt_lconv              1003f2a8     libucrt:localeconv.obj
 0003:000002b8       __iob                      1003f2b8     libucrt:_file.obj
 0003:00000360       __pctype                   1003f360     libucrt:ctype.obj
 0003:00000364       __pwctype                  1003f364     libucrt:ctype.obj
 0003:0000041c       ___mb_cur_max              1003f41c     libucrt:nlsdata.obj
 0003:00000420       ___acrt_initial_locale_data 1003f420     libucrt:nlsdata.obj
 0003:000004d8       ___acrt_initial_locale_pointers 1003f4d8     libucrt:nlsdata.obj
 0003:000004e0       ___acrt_wide_c_locale_string 1003f4e0     libucrt:nlsdata.obj
 0003:000004e8       ___badioinfo               1003f4e8     libucrt:ioinit.obj
 0003:00000518       ___globallocalestatus      1003f518     libucrt:glstatus.obj
 0003:00000618       __mbctype                  1003f618     libucrt:mbctype.obj
 0003:00000720       __mbcasemap                1003f720     libucrt:mbctype.obj
 0003:00000820       ___acrt_initial_multibyte_data 1003f820     libucrt:mbctype.obj
 0003:00000a40       ___acrt_current_multibyte_data 1003fa40     libucrt:mbctype.obj
 0003:00000a48       __lookuptrailbytes         1003fa48     libucrt:read.obj
 0003:00000b50       ___dcrt_lowio_console_output_handle 1003fb50     libucrt:initcon.obj
 0003:00000b84       ___pfnDliNotifyHook2       1003fb84     win_delay_load_hook.obj
 0003:00000b90       ??_R0?AVruntime_error@std@@@8 1003fb90     libcpmt:cout.obj
 0003:00000bb0       ??_R0?AVexception@std@@@8  1003fbb0     libcpmt:cout.obj
 0003:00000bcc       ??_R0?AVfailure@ios_base@std@@@8 1003fbcc     libcpmt:cout.obj
 0003:00000bf0       ??_R0?AVsystem_error@std@@@8 1003fbf0     libcpmt:cout.obj
 0003:00000c10       ??_R0?AV_System_error@std@@@8 1003fc10     libcpmt:cout.obj
 0003:00000c30       ??_R0?AVbad_cast@std@@@8   1003fc30     libcpmt:cout.obj
 0003:00000c4c       ??_R0?AVios_base@std@@@8   1003fc4c     libcpmt:cout.obj
 0003:00000c68       ??_R0?AV?$_Iosb@H@std@@@8  1003fc68     libcpmt:cout.obj
 0003:00000c84       ??_R0?AV?$basic_ios@DU?$char_traits@D@std@@@std@@@8 1003fc84     libcpmt:cout.obj
 0003:00000cbc       ??_R0?AV?$basic_streambuf@DU?$char_traits@D@std@@@std@@@8 1003fcbc     libcpmt:cout.obj
 0003:00000cf8       ??_R0?AV?$basic_ostream@DU?$char_traits@D@std@@@std@@@8 1003fcf8     libcpmt:cout.obj
 0003:00000d34       ??_R0?AV?$basic_filebuf@DU?$char_traits@D@std@@@std@@@8 1003fd34     libcpmt:cout.obj
 0003:00000d70       ??_R0?AV_Facet_base@std@@@8 1003fd70     libcpmt:cout.obj
 0003:00000d90       ??_R0?AVfacet@locale@std@@@8 1003fd90     libcpmt:cout.obj
 0003:00000db0       ??_R0?AU_Crt_new_delete@std@@@8 1003fdb0     libcpmt:cout.obj
 0003:00000dd4       ??_R0?AVcodecvt_base@std@@@8 1003fdd4     libcpmt:cout.obj
 0003:00000df4       ??_R0?AUctype_base@std@@@8 1003fdf4     libcpmt:cout.obj
 0003:00000e14       ??_R0?AV?$ctype@D@std@@@8  1003fe14     libcpmt:cout.obj
 0003:00000e30       ??_R0?AVerror_category@std@@@8 1003fe30     libcpmt:cout.obj
 0003:00000e54       ??_R0?AV_Generic_error_category@std@@@8 1003fe54     libcpmt:cout.obj
 0003:00000e80       ??_R0?AV_Iostream_error_category@std@@@8 1003fe80     libcpmt:cout.obj
 0003:00000eac       ??_R0?AV?$codecvt@DDU_Mbstatet@@@std@@@8 1003feac     libcpmt:cout.obj
 0003:00000ed8       ??_R0?AV_Locimp@locale@std@@@8 1003fed8     libcpmt:locale0.obj
 0003:00000efc       ??_R0?AVbad_alloc@std@@@8  1003fefc     libcpmt:xthrow.obj
 0003:00000f18       ??_R0?AVlogic_error@std@@@8 1003ff18     libcpmt:xthrow.obj
 0003:00000f38       ??_R0?AVlength_error@std@@@8 1003ff38     libcpmt:xthrow.obj
 0003:00000f58       ??_R0?AVout_of_range@std@@@8 1003ff58     libcpmt:xthrow.obj
 0003:00000f78       ??_R0?AV?$num_put@DV?$ostreambuf_iterator@DU?$char_traits@D@std@@@std@@@std@@@8 1003ff78     libcpmt:locale.obj
 0003:00000fcc       ??_R0?AV?$numpunct@D@std@@@8 1003ffcc     libcpmt:locale.obj
 0003:00000fec       ??_R0?AVtype_info@@@8      1003ffec     LIBCMT:std_type_info_static.obj
 0003:00001004       ??_R0?AVbad_array_new_length@std@@@8 10040004     LIBCMT:throw_bad_alloc.obj
 0003:0000102c       ??_R0?AVbad_exception@std@@@8 1004002c     libvcruntime:frame.obj
 0003:0000104c       ??_R0K@8                   1004004c     DataHelper.obj
 0003:00001058       __imp_?Value@External@v8@@QBEPAXXZ 10040058     node:node.exe
 0003:0000105c       __imp_?New@External@v8@@SA?AV?$Local@VExternal@v8@@@2@PAVIsolate@2@PAX@Z 1004005c     node:node.exe
 0003:00001060       __imp_?GetCurrentContext@Isolate@v8@@QAE?AV?$Local@VContext@v8@@@2@XZ 10040060     node:node.exe
 0003:00001064       __imp_?GetCurrent@Isolate@v8@@SAPAV12@XZ 10040064     node:node.exe
 0003:00001068       __imp_?CreateHandle@HandleScope@v8@@KAPAPAVObject@internal@2@PAVIsolate@42@PAV342@@Z 10040068     node:node.exe
 0003:0000106c       __imp_?CreateHandle@HandleScope@v8@@CAPAPAVObject@internal@2@PAVHeapObject@42@PAV342@@Z 1004006c     node:node.exe
 0003:00001070       __imp_??1HandleScope@v8@@QAE@XZ 10040070     node:node.exe
 0003:00001074       __imp_?GetFunction@FunctionTemplate@v8@@QAE?AV?$Local@VFunction@v8@@@2@XZ 10040074     node:node.exe
 0003:00001078       __imp_?GetFunction@FunctionTemplate@v8@@QAE?AV?$MaybeLocal@VFunction@v8@@@2@V?$Local@VContext@v8@@@2@@Z 10040078     node:node.exe
 0003:0000107c       __imp_?New@FunctionTemplate@v8@@SA?AV?$Local@VFunctionTemplate@v8@@@2@PAVIsolate@2@P6AXABV?$FunctionCallbackInfo@VValue@v8@@@2@@ZV?$Local@VValue@v8@@@2@V?$Local@VSignature@v8@@@2@H@Z 1004007c     node:node.exe
 0003:00001080       __imp_?ToLocalEmpty@V8@v8@@CAXXZ 10040080     node:node.exe
 0003:00001084       __imp_?Escape@EscapableHandleScope@v8@@AAEPAPAVObject@internal@2@PAPAV342@@Z 10040084     node:node.exe
 0003:00001088       __imp_??0EscapableHandleScope@v8@@QAE@PAVIsolate@1@@Z 10040088     node:node.exe
 0003:0000108c       __imp_?NewFromUtf8@String@v8@@SA?AV?$MaybeLocal@VString@v8@@@2@PAVIsolate@2@PBDW4NewStringType@2@H@Z 1004008c     node:node.exe
 0003:00001090       __imp_?SlowGetInternalField@Object@v8@@AAE?AV?$Local@VValue@v8@@@2@H@Z 10040090     node:node.exe
 0003:00001094       __imp_?SetInternalField@Object@v8@@QAEXHV?$Local@VValue@v8@@@2@@Z 10040094     node:node.exe
 0003:00001098       __imp_?Set@Object@v8@@QAE?AV?$Maybe@_N@2@V?$Local@VContext@v8@@@2@V?$Local@VValue@v8@@@2@1@Z 10040098     node:node.exe
 0003:0000109c       __imp_?SetInternalFieldCount@ObjectTemplate@v8@@QAEXH@Z 1004009c     node:node.exe
 0003:000010a0       __imp_?NewInstance@ObjectTemplate@v8@@QAE?AV?$MaybeLocal@VObject@v8@@@2@V?$Local@VContext@v8@@@2@@Z 100400a0     node:node.exe
 0003:000010a4       __imp_?New@ObjectTemplate@v8@@SA?AV?$Local@VObjectTemplate@v8@@@2@PAVIsolate@2@V?$Local@VFunctionTemplate@v8@@@2@@Z 100400a4     node:node.exe
 0003:000010a8       __imp_?AtExit@node@@YAXP6AXPAX@Z0@Z 100400a8     node:node.exe
 0003:000010ac       __imp__node_module_register 100400ac     node:node.exe
 0003:000010b0       __imp_?New@Array@v8@@SA?AV?$Local@VArray@v8@@@2@PAVIsolate@2@H@Z 100400b0     node:node.exe
 0003:000010b4       __imp_?New@Date@v8@@SA?AV?$MaybeLocal@VValue@v8@@@2@V?$Local@VContext@v8@@@2@N@Z 100400b4     node:node.exe
 0003:000010b8       __imp_?New@Number@v8@@SA?AV?$Local@VNumber@v8@@@2@PAVIsolate@2@N@Z 100400b8     node:node.exe
 0003:000010bc       __imp_?New@Object@v8@@SA?AV?$Local@VObject@v8@@@2@PAVIsolate@2@@Z 100400bc     node:node.exe
 0003:000010c0       __imp_?Set@Object@v8@@QAE?AV?$Maybe@_N@2@V?$Local@VContext@v8@@@2@IV?$Local@VValue@v8@@@2@@Z 100400c0     node:node.exe
 0003:000010c4       __imp__uv_queue_work       100400c4     node:node.exe
 0003:000010c8       __imp_?Global@Context@v8@@QAE?AV?$Local@VObject@v8@@@2@XZ 100400c8     node:node.exe
 0003:000010cc       __imp_??0HandleScope@v8@@QAE@PAVIsolate@1@@Z 100400cc     node:node.exe
 0003:000010d0       __imp_?Error@Exception@v8@@SA?AV?$Local@VValue@v8@@@2@V?$Local@VString@v8@@@2@@Z 100400d0     node:node.exe
 0003:000010d4       __imp_?DisposeGlobal@V8@v8@@CAXPAPAVObject@internal@2@@Z 100400d4     node:node.exe
 0003:000010d8       __imp_?GlobalizeReference@V8@v8@@CAPAPAVObject@internal@2@PAVIsolate@42@PAPAV342@@Z 100400d8     node:node.exe
 0003:000010dc       __imp_??1Utf8Value@String@v8@@QAE@XZ 100400dc     node:node.exe
 0003:000010e0       __imp_??0Utf8Value@String@v8@@QAE@V?$Local@VValue@v8@@@2@@Z 100400e0     node:node.exe
 0003:000010e4       __imp_?NewFromUtf8@String@v8@@SA?AV?$Local@VString@v8@@@2@PAVIsolate@2@PBDW4NewStringType@12@H@Z 100400e4     node:node.exe
 0003:000010e8       __imp_?Get@Object@v8@@QAE?AV?$Local@VValue@v8@@@2@V32@@Z 100400e8     node:node.exe
 0003:000010ec       __imp_?Get@Object@v8@@QAE?AV?$Local@VValue@v8@@@2@I@Z 100400ec     node:node.exe
 0003:000010f0       __imp_?MakeCallback@node@@YA?AV?$Local@VValue@v8@@@v8@@PAVIsolate@3@V?$Local@VObject@v8@@@3@V?$Local@VFunction@v8@@@3@HPAV23@@Z 100400f0     node:node.exe
 0003:000010f4       __imp__uv_default_loop     100400f4     node:node.exe
 0003:000010f8       __imp_?ToObject@Value@v8@@QBE?AV?$Local@VObject@v8@@@2@XZ 100400f8     node:node.exe
 0003:000010fc       __imp_?ToString@Value@v8@@QBE?AV?$Local@VString@v8@@@2@XZ 100400fc     node:node.exe
 0003:00001100       __imp_?Length@Array@v8@@QBEIXZ 10040100     node:node.exe
 0003:00001104       __imp_?NumberValue@Value@v8@@QBENXZ 10040104     node:node.exe
 0003:00001108       __imp_?IsDate@Value@v8@@QBE_NXZ 10040108     node:node.exe
 0003:0000110c       __imp_?IsNumber@Value@v8@@QBE_NXZ 1004010c     node:node.exe
 0003:00001110       __imp_?IsArray@Value@v8@@QBE_NXZ 10040110     node:node.exe
 0003:00001114       __imp_?GetOwnPropertyNames@Object@v8@@QAE?AV?$Local@VArray@v8@@@2@XZ 10040114     node:node.exe
 0003:00001118       __imp_?ToNumber@Value@v8@@QBE?AV?$Local@VNumber@v8@@@2@XZ 10040118     node:node.exe
 0003:0000111c       __imp_?Has@Object@v8@@QAE_NV?$Local@VValue@v8@@@2@@Z 1004011c     node:node.exe
 0003:00001120       \177node_NULL_THUNK_DATA_DLA 10040120     node:node.exe
 0003:00001128       __hmod__node_exe           10040128     node:node.exe
 0003:00001200       ?cout@std@@3V?$basic_ostream@DU?$char_traits@D@std@@@1@A 10040200     libcpmt:cout.obj
 0003:000012a8       ?id@?$codecvt@DDU_Mbstatet@@@std@@2V0locale@2@A 100402a8     libcpmt:cout.obj
 0003:000012ac       ?_Stinit@?1??_Init@?$basic_filebuf@DU?$char_traits@D@std@@@std@@IAEXPAU_iobuf@@W4_Initfl@23@@Z@4U_Mbstatet@@A 100402ac     libcpmt:cout.obj
 0003:000012b4       ?_Psave@?$_Facetptr@V?$codecvt@DDU_Mbstatet@@@std@@@std@@2PBVfacet@locale@2@B 100402b4     libcpmt:cout.obj
 0003:000012b8       ?_Id_cnt@id@locale@std@@0HA 100402b8     libcpmt:locale0.obj
 0003:000012c0       ?_Clocptr@_Locimp@locale@std@@0PAV123@A 100402c0     libcpmt:locale0.obj
 0003:000012c8       ?id@?$ctype@G@std@@2V0locale@2@A 100402c8     libcpmt:locale0.obj
 0003:000012cc       ?id@?$codecvt@_WDU_Mbstatet@@@std@@2V0locale@2@A 100402cc     libcpmt:locale0.obj
 0003:000012d0       ?id@?$codecvt@GDU_Mbstatet@@@std@@2V0locale@2@A 100402d0     libcpmt:locale0.obj
 0003:000012d4       ?id@?$ctype@_W@std@@2V0locale@2@A 100402d4     libcpmt:locale0.obj
 0003:000012d8       ?id@?$ctype@D@std@@2V0locale@2@A 100402d8     libcpmt:locale0.obj
 0003:000012e8       ?_Raise_handler@std@@3P6AXABVexception@stdext@@@ZA 100402e8     libcpmt:raisehan.obj
 0003:00001320       ?_Index@ios_base@std@@0HA  10040320     libcpmt:ios.obj
 0003:00001324       ?_Ptr_cin@std@@3PAV?$basic_istream@DU?$char_traits@D@std@@@1@A 10040324     libcpmt:iosptrs.obj
 0003:00001328       ?_Ptr_cout@std@@3PAV?$basic_ostream@DU?$char_traits@D@std@@@1@A 10040328     libcpmt:iosptrs.obj
 0003:0000132c       ?_Ptr_cerr@std@@3PAV?$basic_ostream@DU?$char_traits@D@std@@@1@A 1004032c     libcpmt:iosptrs.obj
 0003:00001330       ?_Ptr_clog@std@@3PAV?$basic_ostream@DU?$char_traits@D@std@@@1@A 10040330     libcpmt:iosptrs.obj
 0003:00001334       ?_Ptr_wcin@std@@3PAV?$basic_istream@_WU?$char_traits@_W@std@@@1@A 10040334     libcpmt:iosptrs.obj
 0003:00001338       ?_Ptr_wcout@std@@3PAV?$basic_ostream@_WU?$char_traits@_W@std@@@1@A 10040338     libcpmt:iosptrs.obj
 0003:0000133c       ?_Ptr_wcerr@std@@3PAV?$basic_ostream@_WU?$char_traits@_W@std@@@1@A 1004033c     libcpmt:iosptrs.obj
 0003:00001340       ?_Ptr_wclog@std@@3PAV?$basic_ostream@_WU?$char_traits@_W@std@@@1@A 10040340     libcpmt:iosptrs.obj
 0003:00001370       ?id@?$num_get@DV?$istreambuf_iterator@DU?$char_traits@D@std@@@std@@@std@@2V0locale@2@A 10040370     libcpmt:locale.obj
 0003:00001378       ___encodedKERNEL32Functions 10040378     libcpmt:winapisupp.obj
 0003:00001418       ?id@?$time_put@_WV?$ostreambuf_iterator@_WU?$char_traits@_W@std@@@std@@@std@@2V0locale@2@A 10040418     libcpmt:wlocale.obj
 0003:0000141c       ?id@?$num_get@_WV?$istreambuf_iterator@_WU?$char_traits@_W@std@@@std@@@std@@2V0locale@2@A 1004041c     libcpmt:wlocale.obj
 0003:00001420       ?id@?$num_put@_WV?$ostreambuf_iterator@_WU?$char_traits@_W@std@@@std@@@std@@2V0locale@2@A 10040420     libcpmt:wlocale.obj
 0003:00001424       ?id@?$numpunct@_W@std@@2V0locale@2@A 10040424     libcpmt:wlocale.obj
 0003:00001428       ?id@?$collate@_W@std@@2V0locale@2@A 10040428     libcpmt:wlocale.obj
 0003:0000142c       ?id@?$messages@_W@std@@2V0locale@2@A 1004042c     libcpmt:wlocale.obj
 0003:00001430       ?id@?$money_get@_WV?$istreambuf_iterator@_WU?$char_traits@_W@std@@@std@@@std@@2V0locale@2@A 10040430     libcpmt:wlocale.obj
 0003:00001434       ?id@?$money_put@_WV?$ostreambuf_iterator@_WU?$char_traits@_W@std@@@std@@@std@@2V0locale@2@A 10040434     libcpmt:wlocale.obj
 0003:00001438       ?id@?$moneypunct@_W$0A@@std@@2V0locale@2@A 10040438     libcpmt:wlocale.obj
 0003:0000143c       ?id@?$moneypunct@_W$00@std@@2V0locale@2@A 1004043c     libcpmt:wlocale.obj
 0003:00001440       ?id@?$time_get@_WV?$istreambuf_iterator@_WU?$char_traits@_W@std@@@std@@@std@@2V0locale@2@A 10040440     libcpmt:wlocale.obj
 0003:00001444       ?id@?$num_get@GV?$istreambuf_iterator@GU?$char_traits@G@std@@@std@@@std@@2V0locale@2@A 10040444     libcpmt:wlocale.obj
 0003:00001448       ?id@?$num_put@GV?$ostreambuf_iterator@GU?$char_traits@G@std@@@std@@@std@@2V0locale@2@A 10040448     libcpmt:wlocale.obj
 0003:0000144c       ?id@?$numpunct@G@std@@2V0locale@2@A 1004044c     libcpmt:wlocale.obj
 0003:00001450       ?id@?$collate@G@std@@2V0locale@2@A 10040450     libcpmt:wlocale.obj
 0003:00001454       ?id@?$messages@G@std@@2V0locale@2@A 10040454     libcpmt:wlocale.obj
 0003:00001458       ?id@?$money_get@GV?$istreambuf_iterator@GU?$char_traits@G@std@@@std@@@std@@2V0locale@2@A 10040458     libcpmt:wlocale.obj
 0003:0000145c       ?id@?$money_put@GV?$ostreambuf_iterator@GU?$char_traits@G@std@@@std@@@std@@2V0locale@2@A 1004045c     libcpmt:wlocale.obj
 0003:00001460       ?id@?$moneypunct@G$0A@@std@@2V0locale@2@A 10040460     libcpmt:wlocale.obj
 0003:00001464       ?id@?$moneypunct@G$00@std@@2V0locale@2@A 10040464     libcpmt:wlocale.obj
 0003:00001468       ?id@?$time_get@GV?$istreambuf_iterator@GU?$char_traits@G@std@@@std@@@std@@2V0locale@2@A 10040468     libcpmt:wlocale.obj
 0003:0000146c       ?id@?$time_put@GV?$ostreambuf_iterator@GU?$char_traits@G@std@@@std@@@std@@2V0locale@2@A 1004046c     libcpmt:wlocale.obj
 0003:00001470       ?id@?$collate@D@std@@2V0locale@2@A 10040470     libcpmt:xlocale.obj
 0003:00001474       ?id@?$messages@D@std@@2V0locale@2@A 10040474     libcpmt:xlocale.obj
 0003:00001478       ?id@?$money_get@DV?$istreambuf_iterator@DU?$char_traits@D@std@@@std@@@std@@2V0locale@2@A 10040478     libcpmt:xlocale.obj
 0003:0000147c       ?id@?$money_put@DV?$ostreambuf_iterator@DU?$char_traits@D@std@@@std@@@std@@2V0locale@2@A 1004047c     libcpmt:xlocale.obj
 0003:00001480       ?id@?$moneypunct@D$0A@@std@@2V0locale@2@A 10040480     libcpmt:xlocale.obj
 0003:00001484       ?id@?$moneypunct@D$00@std@@2V0locale@2@A 10040484     libcpmt:xlocale.obj
 0003:00001488       ?id@?$time_get@DV?$istreambuf_iterator@DU?$char_traits@D@std@@@std@@@std@@2V0locale@2@A 10040488     libcpmt:xlocale.obj
 0003:0000148c       ?id@?$time_put@DV?$ostreambuf_iterator@DU?$char_traits@D@std@@@std@@@std@@2V0locale@2@A 1004048c     libcpmt:xlocale.obj
 0003:00001490       __FZero                    10040490     libcpmt:xfvalues.obj
 0003:00001498       __Zero                     10040498     libcpmt:xvalues.obj
 0003:000014a0       __LZero                    100404a0     libcpmt:xlvalues.obj
 0003:000014a8       ___scrt_current_native_startup_state 100404a8     LIBCMT:utility.obj
 0003:000014ac       ___scrt_native_startup_lock 100404ac     LIBCMT:utility.obj
 0003:00001814       ___isa_available           10040814     LIBCMT:_cpu_disp_.obj
 0003:00001818       ___favor                   10040818     LIBCMT:_cpu_disp_.obj
 0003:0000181c       ___scrt_debugger_hook_flag 1004081c     LIBCMT:utility_desktop.obj
 0003:00001820       __tls_index                10040820     LIBCMT:tlssup.obj
 0003:00001828       ?__type_info_root_node@@3U__type_info_node@@A 10040828     LIBCMT:tncleanup.obj
 0003:00001830       ?_OptionsStorage@?1??__local_stdio_scanf_options@@9@4_KA 10040830     LIBCMT:default_local_stdio_options.obj
 0003:00001838       ?g_OutOfMemoryExceptionCallback@@3P6GPAXXZA 10040838     libvcruntime:frame.obj
 0003:00001870       ___pPurecall               10040870     libvcruntime:purevirt_data.obj
 0003:000018b8       ?pArgList@UnDecorator@@0PAVReplicator@@A 100408b8     libvcruntime:undname.obj
 0003:000018bc       ?pZNameList@UnDecorator@@0PAVReplicator@@A 100408bc     libvcruntime:undname.obj
 0003:000018c0       ?pTemplateArgList@UnDecorator@@0PAVReplicator@@A 100408c0     libvcruntime:undname.obj
 0003:000018c4       ?gName@UnDecorator@@0PBDB  100408c4     libvcruntime:undname.obj
 0003:000018c8       ?name@UnDecorator@@0PBDB   100408c8     libvcruntime:undname.obj
 0003:000018cc       ?outputString@UnDecorator@@0PADA 100408cc     libvcruntime:undname.obj
 0003:000018d0       ?maxStringLength@UnDecorator@@0HA 100408d0     libvcruntime:undname.obj
 0003:000018d4       ?disableFlags@UnDecorator@@0KA 100408d4     libvcruntime:undname.obj
 0003:000018d8       ?fExplicitTemplateParams@UnDecorator@@0_NA 100408d8     libvcruntime:undname.obj
 0003:000018d9       ?fGetTemplateArgumentList@UnDecorator@@0_NA 100408d9     libvcruntime:undname.obj
 0003:000018dc       ?m_pGetParameter@UnDecorator@@0P6APADJ@ZA 100408dc     libvcruntime:undname.obj
 0003:000018f8       ___acrt_lconv_static_null  100408f8     libucrt:localeconv.obj
 0003:000018fc       ___acrt_lconv_static_W_null 100408fc     libucrt:localeconv.obj
 0003:00001a3c       __nstream                  10040a3c     libucrt:_file.obj
 0003:00001a40       ___piob                    10040a40     libucrt:_file.obj
 0003:00001a44       __cflush                   10040a44     libucrt:_file.obj
 0003:00001a54       __environ_table            10040a54     libucrt:environment_initialization.obj
 0003:00001a58       __wenviron_table           10040a58     libucrt:environment_initialization.obj
 0003:00001a5c       ___dcrt_initial_wide_environment 10040a5c     libucrt:environment_initialization.obj
 0003:00001a60       ___dcrt_initial_narrow_environment 10040a60     libucrt:environment_initialization.obj
 0003:00001a64       ___acrt_atexit_table       10040a64     libucrt:onexit.obj
 0003:00001a70       ___acrt_at_quick_exit_table 10040a70     libucrt:onexit.obj
 0003:00001a98       ?_timezone@@3V?$dual_state_global@J@__crt_state_management@@A 10040a98     libucrt:timeset.obj
 0003:00001a9c       ?_daylight@@3V?$dual_state_global@H@__crt_state_management@@A 10040a9c     libucrt:timeset.obj
 0003:00001aa0       ?_dstbias@@3V?$dual_state_global@J@__crt_state_management@@A 10040aa0     libucrt:timeset.obj
 0003:00001c44       ___acrt_stdout_buffer      10040c44     libucrt:_sftbuf.obj
 0003:00001c48       ___acrt_stderr_buffer      10040c48     libucrt:_sftbuf.obj
 0003:00001c4c       ___acrt_locale_changed_data 10040c4c     libucrt:wsetlocale.obj
 0003:00001c50       ___acrt_current_locale_data 10040c50     libucrt:nlsdata.obj
 0003:00001c58       ___pioinfo                 10040c58     libucrt:ioinit.obj
 0003:00001e58       __nhandle                  10040e58     libucrt:ioinit.obj
 0003:00001e60       ___acrt_heap               10040e60     libucrt:heap_handle.obj
 0003:00001e64       ___fastflag                10040e64     libucrt:fp_flags.obj
 0003:00001e68       ___mblocalename            10040e68     libucrt:mbctype.obj
 0003:00001e6c       ___mbcodepage              10040e6c     libucrt:mbctype.obj
 0003:00001e70       ___ismbcodepage            10040e70     libucrt:mbctype.obj
 0003:00001e74       ___mbulinfo                10040e74     libucrt:mbctype.obj
 0003:00001e88       ___argv                    10040e88     libucrt:argv_data.obj
 0003:00001e8c       ___wargv                   10040e8c     libucrt:argv_data.obj
 0003:00001e90       __acmdln                   10040e90     libucrt:argv_data.obj
 0003:00001e94       __wcmdln                   10040e94     libucrt:argv_data.obj
 0003:00001ea0       ?DloadKernel32@@3PAUHINSTANCE__@@A 10040ea0     DelayImp:delayhlp.obj
 0003:00001ea4       ?DloadAcquireSRWLockExclusive@@3P6GXPAK@ZA 10040ea4     DelayImp:delayhlp.obj
 0003:00001ea8       ?DloadReleaseSRWLockExclusive@@3P6GXPAK@ZA 10040ea8     DelayImp:delayhlp.obj
 0003:00001eac       ?DloadSrwLock@@3KA         10040eac     DelayImp:delayhlp.obj
 0003:00001eb0       ?DloadSectionLockCount@@3KA 10040eb0     DelayImp:delayhlp.obj
 0003:00001eb4       ?DloadSectionOldProtection@@3KA 10040eb4     DelayImp:delayhlp.obj
 0003:00001eb8       ?DloadSectionCommitPermanent@@3KA 10040eb8     DelayImp:delayhlp.obj
 0003:00001ebc       ___pfnDliFailureHook2      10040ebc     DelayImp:delayhk1.obj
 0003:00001ec0       ?$TSS0@?1???$_Immortalize@V_Iostream_error_category@std@@@std@@YAAAV_Iostream_error_category@1@XZ@4HA 10040ec0     DataHelper.obj
 0003:00001ec4       ?_Static@?1???$_Immortalize@V_Iostream_error_category@std@@@std@@YAAAV_Iostream_error_category@1@XZ@4U?$_Immortalizer@V_Iostream_error_category@std@@@1@A 10040ec4     DataHelper.obj
 0003:00001ecc       ?_Psave@?$_Facetptr@V?$ctype@D@std@@@std@@2PBVfacet@locale@2@B 10040ecc     DataHelper.obj
 0003:00001ed0       ?_Psave@?$_Facetptr@V?$numpunct@D@std@@@std@@2PBVfacet@locale@2@B 10040ed0     view_async.obj
 0003:00001ed4       ?_Psave@?$_Facetptr@V?$num_put@DV?$ostreambuf_iterator@DU?$char_traits@D@std@@@std@@@std@@@std@@2PBVfacet@locale@2@B 10040ed4     view_async.obj
 0003:00001ed8       ?session@@3VLNNotesSession@@A 10040ed8     addon.obj
 0003:00001f30       ?id@?$num_put@DV?$ostreambuf_iterator@DU?$char_traits@D@std@@@std@@@std@@2V0locale@2@A 10040f30     view_async.obj
 0003:00001f38       ?_OptionsStorage@?1??__local_stdio_printf_options@@9@4_KA 10040f38     view_async.obj
 0003:00001f40       ?id@?$numpunct@D@std@@2V0locale@2@A 10040f40     view_async.obj
 0003:00001f44       ___dyn_tls_init_callback   10040f44     <common>
 0003:00001f48       ___scrt_ucrt_dll_is_in_use 10040f48     <common>
 0003:00001f4c       __pmatherr                 10040f4c     <common>
 0003:00001f50       ___use_sse2_mathfcns       10040f50     <common>
 0005:00000000       __tls_start                10042000     LIBCMT:tlssup.obj
 0005:00000004       __Init_thread_epoch        10042004     LIBCMT:thread_safe_statics.obj
 0005:00000008       __tls_end                  10042008     LIBCMT:tlssup.obj

 entry point at        0001:00011d82

 Static symbols

 0000:fffb9000       .debug$S                   10000000     node:node.exe
 0000:fffb9000       .debug$S                   10000000     notescpp:lcppn.dll
 0000:fffb9000       .debug$S                   10000000     notescpp:lcppn.dll
 0000:fffb9000       .debug$S                   10000000     notescpp:lcppn.dll
 0000:fffb9000       .debug$S                   10000000     notescpp:lcppn.dll
 0000:fffb9000       .debug$S                   10000000     notescpp:lcppn.dll
 0000:fffb9000       .debug$S                   10000000     notescpp:lcppn.dll
 0000:fffb9000       .debug$S                   10000000     notescpp:lcppn.dll
 0000:fffb9000       .debug$S                   10000000     notescpp:lcppn.dll
 0000:fffb9000       .debug$S                   10000000     notescpp:lcppn.dll
 0000:fffb9000       .debug$S                   10000000     notescpp:lcppn.dll
 0000:fffb9000       .debug$S                   10000000     notescpp:lcppn.dll
 0000:fffb9000       .debug$S                   10000000     notescpp:lcppn.dll
 0000:fffb9000       .debug$S                   10000000     notescpp:lcppn.dll
 0000:fffb9000       .debug$S                   10000000     notescpp:lcppn.dll
 0000:fffb9000       .debug$S                   10000000     notescpp:lcppn.dll
 0000:fffb9000       .debug$S                   10000000     notescpp:lcppn.dll
 0000:fffb9000       .debug$S                   10000000     notescpp:lcppn.dll
 0000:fffb9000       .debug$S                   10000000     notescpp:lcppn.dll
 0000:fffb9000       .debug$S                   10000000     notescpp:lcppn.dll
 0000:fffb9000       .debug$S                   10000000     notescpp:lcppn.dll
 0000:fffb9000       .debug$S                   10000000     notescpp:lcppn.dll
 0000:fffb9000       .debug$S                   10000000     notescpp:lcppn.dll
 0000:fffb9000       .debug$S                   10000000     notescpp:lcppn.dll
 0000:fffb9000       .debug$S                   10000000     notescpp:lcppn.dll
 0000:fffb9000       .debug$S                   10000000     notescpp:lcppn.dll
 0000:fffb9000       .debug$S                   10000000     notescpp:lcppn.dll
 0000:fffb9000       .debug$S                   10000000     notescpp:lcppn.dll
 0000:fffb9000       .debug$S                   10000000     notescpp:lcppn.dll
 0000:fffb9000       .debug$S                   10000000     notescpp:lcppn.dll
 0000:fffb9000       .debug$S                   10000000     notescpp:lcppn.dll
 0000:fffb9000       .debug$S                   10000000     notescpp:lcppn.dll
 0000:fffb9000       .debug$S                   10000000     notescpp:lcppn.dll
 0000:fffb9000       .debug$S                   10000000     notescpp:lcppn.dll
 0000:fffb9000       .debug$S                   10000000     notescpp:lcppn.dll
 0000:fffb9000       .debug$S                   10000000     notescpp:lcppn.dll
 0000:fffb9000       .debug$S                   10000000     notescpp:lcppn.dll
 0000:fffb9000       .debug$S                   10000000     notescpp:lcppn.dll
 0000:fffb9000       .debug$S                   10000000     notescpp:lcppn.dll
 0000:fffb9000       .debug$S                   10000000     notescpp:lcppn.dll
 0000:fffb9000       .debug$S                   10000000     notescpp:lcppn.dll
 0000:fffb9000       .debug$S                   10000000     notescpp:lcppn.dll
 0000:fffb9000       .debug$S                   10000000     notescpp:lcppn.dll
 0000:fffb9000       .debug$S                   10000000     notescpp:lcppn.dll
 0000:fffb9000       .debug$S                   10000000     notescpp:lcppn.dll
 0000:fffb9000       .debug$S                   10000000     notescpp:lcppn.dll
 0000:fffb9000       .debug$S                   10000000     notescpp:lcppn.dll
 0000:fffb9000       .debug$S                   10000000     notescpp:lcppn.dll
 0000:fffb9000       .debug$S                   10000000     notescpp:lcppn.dll
 0000:fffb9000       .debug$S                   10000000     notescpp:lcppn.dll
 0000:fffb9000       .debug$S                   10000000     notescpp:lcppn.dll
 0000:fffb9000       .debug$S                   10000000     notescpp:lcppn.dll
 0000:fffb9000       .debug$S                   10000000     notescpp:lcppn.dll
 0000:fffb9000       .debug$S                   10000000     notescpp:lcppn.dll
 0000:fffb9000       .debug$S                   10000000     notescpp:lcppn.dll
 0000:fffb9000       .debug$S                   10000000     notescpp:lcppn.dll
 0000:fffb9000       .debug$S                   10000000     notescpp:lcppn.dll
 0000:fffb9000       .debug$S                   10000000     notescpp:lcppn.dll
 0000:fffb9000       .debug$S                   10000000     notescpp:lcppn.dll
 0000:fffb9000       .debug$S                   10000000     notescpp:lcppn.dll
 0000:fffb9000       .debug$S                   10000000     notescpp:lcppn.dll
 0000:fffb9000       .debug$S                   10000000     notescpp:lcppn.dll
 0000:fffb9000       .debug$S                   10000000     notescpp:lcppn.dll
 0000:fffb9000       .debug$S                   10000000     notescpp:lcppn.dll
 0000:fffb9000       .debug$S                   10000000     notescpp:lcppn.dll
 0000:fffb9000       .debug$S                   10000000     notescpp:lcppn.dll
 0000:fffb9000       .debug$S                   10000000     addon.exp
 0000:fffb9000       .debug$S                   10000000     notescpp:lcppn.dll
 0000:fffb9000       .debug$S                   10000000     notescpp:lcppn.dll
 0000:fffb9000       .debug$S                   10000000     notescpp:lcppn.dll
 0000:fffb9000       .debug$S                   10000000     notescpp:lcppn.dll
 0000:fffb9000       .debug$S                   10000000     notescpp:lcppn.dll
 0000:fffb9000       .debug$S                   10000000     kernel32:KERNEL32.dll
 0000:fffb9000       .debug$S                   10000000     kernel32:KERNEL32.dll
 0000:fffb9000       .debug$S                   10000000     kernel32:KERNEL32.dll
 0000:fffb9000       .debug$S                   10000000     kernel32:KERNEL32.dll
 0000:fffb9000       .debug$S                   10000000     kernel32:KERNEL32.dll
 0000:fffb9000       .debug$S                   10000000     kernel32:KERNEL32.dll
 0000:fffb9000       .debug$S                   10000000     kernel32:KERNEL32.dll
 0000:fffb9000       .debug$S                   10000000     kernel32:KERNEL32.dll
 0000:fffb9000       .debug$S                   10000000     kernel32:KERNEL32.dll
 0000:fffb9000       .debug$S                   10000000     kernel32:KERNEL32.dll
 0000:fffb9000       .debug$S                   10000000     kernel32:KERNEL32.dll
 0000:fffb9000       .debug$S                   10000000     kernel32:KERNEL32.dll
 0000:fffb9000       .debug$S                   10000000     kernel32:KERNEL32.dll
 0000:fffb9000       .debug$S                   10000000     kernel32:KERNEL32.dll
 0000:fffb9000       .debug$S                   10000000     kernel32:KERNEL32.dll
 0000:fffb9000       .debug$S                   10000000     kernel32:KERNEL32.dll
 0000:fffb9000       .debug$S                   10000000     kernel32:KERNEL32.dll
 0000:fffb9000       .debug$S                   10000000     kernel32:KERNEL32.dll
 0000:fffb9000       .debug$S                   10000000     kernel32:KERNEL32.dll
 0000:fffb9000       .debug$S                   10000000     kernel32:KERNEL32.dll
 0000:fffb9000       .debug$S                   10000000     kernel32:KERNEL32.dll
 0000:fffb9000       .debug$S                   10000000     kernel32:KERNEL32.dll
 0000:fffb9000       .debug$S                   10000000     kernel32:KERNEL32.dll
 0000:fffb9000       .debug$S                   10000000     kernel32:KERNEL32.dll
 0000:fffb9000       .debug$S                   10000000     kernel32:KERNEL32.dll
 0000:fffb9000       .debug$S                   10000000     kernel32:KERNEL32.dll
 0000:fffb9000       .debug$S                   10000000     kernel32:KERNEL32.dll
 0000:fffb9000       .debug$S                   10000000     kernel32:KERNEL32.dll
 0000:fffb9000       .debug$S                   10000000     kernel32:KERNEL32.dll
 0000:fffb9000       .debug$S                   10000000     kernel32:KERNEL32.dll
 0000:fffb9000       .debug$S                   10000000     kernel32:KERNEL32.dll
 0000:fffb9000       .debug$S                   10000000     kernel32:KERNEL32.dll
 0000:fffb9000       .debug$S                   10000000     kernel32:KERNEL32.dll
 0000:fffb9000       .debug$S                   10000000     kernel32:KERNEL32.dll
 0000:fffb9000       .debug$S                   10000000     kernel32:KERNEL32.dll
 0000:fffb9000       .debug$S                   10000000     kernel32:KERNEL32.dll
 0000:fffb9000       .debug$S                   10000000     kernel32:KERNEL32.dll
 0000:fffb9000       .debug$S                   10000000     kernel32:KERNEL32.dll
 0000:fffb9000       .debug$S                   10000000     kernel32:KERNEL32.dll
 0000:fffb9000       .debug$S                   10000000     kernel32:KERNEL32.dll
 0000:fffb9000       .debug$S                   10000000     kernel32:KERNEL32.dll
 0000:fffb9000       .debug$S                   10000000     kernel32:KERNEL32.dll
 0000:fffb9000       .debug$S                   10000000     kernel32:KERNEL32.dll
 0000:fffb9000       .debug$S                   10000000     kernel32:KERNEL32.dll
 0000:fffb9000       .debug$S                   10000000     kernel32:KERNEL32.dll
 0000:fffb9000       .debug$S                   10000000     kernel32:KERNEL32.dll
 0000:fffb9000       .debug$S                   10000000     kernel32:KERNEL32.dll
 0000:fffb9000       .debug$S                   10000000     kernel32:KERNEL32.dll
 0000:fffb9000       .debug$S                   10000000     kernel32:KERNEL32.dll
 0000:fffb9000       .debug$S                   10000000     kernel32:KERNEL32.dll
 0000:fffb9000       .debug$S                   10000000     kernel32:KERNEL32.dll
 0000:fffb9000       .debug$S                   10000000     kernel32:KERNEL32.dll
 0000:fffb9000       .debug$S                   10000000     kernel32:KERNEL32.dll
 0000:fffb9000       .debug$S                   10000000     kernel32:KERNEL32.dll
 0000:fffb9000       .debug$S                   10000000     kernel32:KERNEL32.dll
 0000:fffb9000       .debug$S                   10000000     kernel32:KERNEL32.dll
 0000:fffb9000       .debug$S                   10000000     kernel32:KERNEL32.dll
 0000:fffb9000       .debug$S                   10000000     kernel32:KERNEL32.dll
 0000:fffb9000       .debug$S                   10000000     kernel32:KERNEL32.dll
 0000:fffb9000       .debug$S                   10000000     kernel32:KERNEL32.dll
 0000:fffb9000       .debug$S                   10000000     kernel32:KERNEL32.dll
 0000:fffb9000       .debug$S                   10000000     kernel32:KERNEL32.dll
 0000:fffb9000       .debug$S                   10000000     kernel32:KERNEL32.dll
 0000:fffb9000       .debug$S                   10000000     kernel32:KERNEL32.dll
 0000:fffb9000       .debug$S                   10000000     kernel32:KERNEL32.dll
 0000:fffb9000       .debug$S                   10000000     kernel32:KERNEL32.dll
 0000:fffb9000       .debug$S                   10000000     kernel32:KERNEL32.dll
 0000:fffb9000       .debug$S                   10000000     kernel32:KERNEL32.dll
 0000:fffb9000       .debug$S                   10000000     kernel32:KERNEL32.dll
 0000:fffb9000       .debug$S                   10000000     kernel32:KERNEL32.dll
 0000:fffb9000       .debug$S                   10000000     kernel32:KERNEL32.dll
 0000:fffb9000       .debug$S                   10000000     kernel32:KERNEL32.dll
 0000:fffb9000       .debug$S                   10000000     kernel32:KERNEL32.dll
 0000:fffb9000       .debug$S                   10000000     kernel32:KERNEL32.dll
 0000:fffb9000       .debug$S                   10000000     kernel32:KERNEL32.dll
 0000:fffb9000       .debug$S                   10000000     kernel32:KERNEL32.dll
 0000:fffb9000       .debug$S                   10000000     kernel32:KERNEL32.dll
 0000:fffb9000       .debug$S                   10000000     kernel32:KERNEL32.dll
 0000:fffb9000       .debug$S                   10000000     kernel32:KERNEL32.dll
 0000:fffb9000       .debug$S                   10000000     kernel32:KERNEL32.dll
 0000:fffb9000       .debug$S                   10000000     kernel32:KERNEL32.dll
 0000:fffb9000       .debug$S                   10000000     kernel32:KERNEL32.dll
 0000:fffb9000       .debug$S                   10000000     kernel32:KERNEL32.dll
 0000:fffb9000       .debug$S                   10000000     kernel32:KERNEL32.dll
 0000:fffb9000       .debug$S                   10000000     kernel32:KERNEL32.dll
 0000:fffb9000       .debug$S                   10000000     kernel32:KERNEL32.dll
 0000:fffb9000       .debug$S                   10000000     kernel32:KERNEL32.dll
 0000:fffb9000       .debug$S                   10000000     kernel32:KERNEL32.dll
 0000:fffb9000       .debug$S                   10000000     kernel32:KERNEL32.dll
 0000:fffb9000       .debug$S                   10000000     kernel32:KERNEL32.dll
 0000:fffb9000       .debug$S                   10000000     kernel32:KERNEL32.dll
 0000:fffb9000       .debug$S                   10000000     kernel32:KERNEL32.dll
 0000:fffb9000       .debug$S                   10000000     kernel32:KERNEL32.dll
 0000:fffb9000       .debug$S                   10000000     notescpp:lcppn.dll
 0000:fffb9000       .debug$S                   10000000     advapi32:ADVAPI32.dll
 0000:fffb9000       .debug$S                   10000000     notescpp:lcppn.dll
 0000:fffb9000       .debug$S                   10000000     node:node.exe
 0000:fffb9000       .debug$S                   10000000     node:node.exe
 0000:fffb9000       .debug$S                   10000000     node:node.exe
 0000:fffb9000       .debug$S                   10000000     node:node.exe
 0000:fffb9000       .debug$S                   10000000     node:node.exe
 0000:fffb9000       .debug$S                   10000000     node:node.exe
 0000:fffb9000       .debug$S                   10000000     node:node.exe
 0000:fffb9000       .debug$S                   10000000     node:node.exe
 0000:fffb9000       .debug$S                   10000000     node:node.exe
 0000:fffb9000       .debug$S                   10000000     node:node.exe
 0000:fffb9000       .debug$S                   10000000     node:node.exe
 0000:fffb9000       .debug$S                   10000000     node:node.exe
 0000:fffb9000       .debug$S                   10000000     node:node.exe
 0000:fffb9000       .debug$S                   10000000     node:node.exe
 0000:fffb9000       .debug$S                   10000000     node:node.exe
 0000:fffb9000       .debug$S                   10000000     node:node.exe
 0000:fffb9000       .debug$S                   10000000     node:node.exe
 0000:fffb9000       .debug$S                   10000000     node:node.exe
 0000:fffb9000       .debug$S                   10000000     node:node.exe
 0000:fffb9000       .debug$S                   10000000     node:node.exe
 0000:fffb9000       .debug$S                   10000000     node:node.exe
 0000:fffb9000       .debug$S                   10000000     node:node.exe
 0000:fffb9000       .debug$S                   10000000     node:node.exe
 0000:fffb9000       .debug$S                   10000000     notescpp:lcppn.dll
 0000:fffb9000       .debug$S                   10000000     node:node.exe
 0000:fffb9000       .debug$S                   10000000     node:node.exe
 0000:fffb9000       .debug$S                   10000000     node:node.exe
 0000:fffb9000       .debug$S                   10000000     node:node.exe
 0000:fffb9000       .debug$S                   10000000     node:node.exe
 0000:fffb9000       .debug$S                   10000000     node:node.exe
 0000:fffb9000       .debug$S                   10000000     node:node.exe
 0000:fffb9000       .debug$S                   10000000     node:node.exe
 0000:fffb9000       .debug$S                   10000000     node:node.exe
 0000:fffb9000       .debug$S                   10000000     node:node.exe
 0000:fffb9000       .debug$S                   10000000     node:node.exe
 0000:fffb9000       .debug$S                   10000000     node:node.exe
 0000:fffb9000       .debug$S                   10000000     node:node.exe
 0000:fffb9000       .debug$S                   10000000     node:node.exe
 0000:fffb9000       .debug$S                   10000000     node:node.exe
 0000:fffb9000       .debug$S                   10000000     node:node.exe
 0000:fffb9000       .debug$S                   10000000     node:node.exe
 0000:fffb9000       .debug$S                   10000000     node:node.exe
 0000:fffb9000       .debug$S                   10000000     node:node.exe
 0000:fffb9000       .debug$S                   10000000     node:node.exe
 0000:fffb9000       .debug$S                   10000000     node:node.exe
 0000:fffb9000       .debug$S                   10000000     node:node.exe
 0000:fffb9000       .debug$S                   10000000     node:node.exe
 0000:fffb9000       .debug$S                   10000000     node:node.exe
 0000:fffb9000       .debug$S                   10000000     node:node.exe
 0000:fffb9000       .debug$S                   10000000     node:node.exe
 0000:fffb9000       .debug$S                   10000000     node:node.exe
 0000:fffb9000       .debug$S                   10000000     node:node.exe
 0000:fffb9000       .debug$S                   10000000     node:node.exe
 0000:fffb9000       .debug$S                   10000000     node:node.exe
 0000:fffb9000       .debug$S                   10000000     node:node.exe
 0000:fffb9000       .debug$S                   10000000     node:node.exe
 0000:fffb9000       .debug$S                   10000000     node:node.exe
 0000:fffb9000       .debug$S                   10000000     node:node.exe
 0000:fffb9000       .debug$S                   10000000     node:node.exe
 0000:fffb9000       .debug$S                   10000000     node:node.exe
 0000:fffb9000       .debug$S                   10000000     node:node.exe
 0000:fffb9000       .debug$S                   10000000     notescpp:lcppn.dll
 0000:fffb9000       .debug$S                   10000000     notescpp:lcppn.dll
 0000:fffb9000       .debug$S                   10000000     notescpp:lcppn.dll
 0000:fffb9000       .debug$S                   10000000     notescpp:lcppn.dll
 0000:fffb9000       .debug$S                   10000000     notescpp:lcppn.dll
 0000:fffb9000       .debug$S                   10000000     notescpp:lcppn.dll
 0000:fffb9000       .debug$S                   10000000     notescpp:lcppn.dll
 0000:fffb9000       .debug$S                   10000000     notescpp:lcppn.dll
 0000:fffb9000       .debug$S                   10000000     notescpp:lcppn.dll
 0000:fffb9000       .debug$S                   10000000     notescpp:lcppn.dll
 0000:fffb9000       .debug$S                   10000000     notescpp:lcppn.dll
 0000:fffb9000       .debug$S                   10000000     notescpp:lcppn.dll
 0000:fffb9000       .debug$S                   10000000     notescpp:lcppn.dll
 0000:fffb9000       .debug$S                   10000000     notescpp:lcppn.dll
 0000:fffb9000       .debug$S                   10000000     notescpp:lcppn.dll
 0000:fffb9000       .debug$S                   10000000     notescpp:lcppn.dll
 0000:fffb9000       .debug$S                   10000000     notescpp:lcppn.dll
 0000:fffb9000       .debug$S                   10000000     notescpp:lcppn.dll
 0000:fffb9000       .debug$S                   10000000     notescpp:lcppn.dll
 0000:fffb9000       .debug$S                   10000000     notescpp:lcppn.dll
 0000:fffb9000       .debug$S                   10000000     notescpp:lcppn.dll
 0000:fffb9000       .debug$S                   10000000     notescpp:lcppn.dll
 0000:fffb9000       .debug$S                   10000000     notescpp:lcppn.dll
 0000:fffb9000       .debug$S                   10000000     notescpp:lcppn.dll
 0000:fffb9000       .debug$S                   10000000     notescpp:lcppn.dll
 0000:fffb9000       .debug$S                   10000000     notescpp:lcppn.dll
 0000:fffb9000       .debug$S                   10000000     notescpp:lcppn.dll
 0000:fffb9000       .debug$S                   10000000     notescpp:lcppn.dll
 0000:fffb9000       .debug$S                   10000000     notescpp:lcppn.dll
 0000:fffb9000       .debug$S                   10000000     notescpp:lcppn.dll
 0000:fffb9000       .debug$S                   10000000     notescpp:lcppn.dll
 0000:fffb9000       .debug$S                   10000000     notescpp:lcppn.dll
 0000:fffb9000       .debug$S                   10000000     notescpp:lcppn.dll
 0000:fffb9000       .debug$S                   10000000     notescpp:lcppn.dll
 0000:fffb9000       .debug$S                   10000000     notescpp:lcppn.dll
 0000:fffb9000       .debug$S                   10000000     notescpp:lcppn.dll
 0000:fffb9000       .debug$S                   10000000     notescpp:lcppn.dll
 0000:fffb9000       .debug$S                   10000000     notescpp:lcppn.dll
 0000:fffb9000       .debug$S                   10000000     notescpp:lcppn.dll
 0000:fffb9000       .debug$S                   10000000     notescpp:lcppn.dll
 0000:fffb9000       .debug$S                   10000000     notescpp:lcppn.dll
 0000:fffb9000       .debug$S                   10000000     notescpp:lcppn.dll
 0000:fffb9000       .debug$S                   10000000     notescpp:lcppn.dll
 0000:fffb9000       .debug$S                   10000000     notescpp:lcppn.dll
 0000:fffb9000       .debug$S                   10000000     notescpp:lcppn.dll
 0000:fffb9000       .debug$S                   10000000     notescpp:lcppn.dll
 0000:fffb9000       .debug$S                   10000000     notescpp:lcppn.dll
 0000:fffb9000       .debug$S                   10000000     notescpp:lcppn.dll
 0000:fffb9000       .debug$S                   10000000     notescpp:lcppn.dll
 0000:fffb9000       .debug$S                   10000000     notescpp:lcppn.dll
 0000:fffb9000       .debug$S                   10000000     notescpp:lcppn.dll
 0000:fffb9000       .debug$S                   10000000     notescpp:lcppn.dll
 0000:fffb9000       .debug$S                   10000000     notescpp:lcppn.dll
 0000:fffb9000       .debug$S                   10000000     notescpp:lcppn.dll
 0000:fffb9000       .debug$S                   10000000     notescpp:lcppn.dll
 0000:fffb9000       .debug$S                   10000000     notescpp:lcppn.dll
 0000:fffb9000       .debug$S                   10000000     notescpp:lcppn.dll
 0000:fffb9000       .debug$S                   10000000     notescpp:lcppn.dll
 0000:fffb9000       .debug$S                   10000000     notescpp:lcppn.dll
 0000:fffb9000       .debug$S                   10000000     notescpp:lcppn.dll
 0000:fffb9000       .debug$S                   10000000     notescpp:lcppn.dll
 0000:fffb9000       .debug$S                   10000000     notescpp:lcppn.dll
 0000:fffb9000       .debug$S                   10000000     notescpp:lcppn.dll
 0000:fffb9000       .debug$S                   10000000     notescpp:lcppn.dll
 0000:fffb9000       .debug$S                   10000000     notescpp:lcppn.dll
 0000:fffb9000       .debug$S                   10000000     notescpp:lcppn.dll
 0000:fffb9000       .debug$S                   10000000     notescpp:lcppn.dll
 0001:00000260       ??__Esession@@YAXXZ        10001260 f   addon.obj
 0001:00000277       ??__Einitlocks@std@@YAXXZ  10001277 f   libcpmt:xlock.obj
 0001:0000028d       ??__Ecout@std@@YAXXZ       1000128d f   libcpmt:cout.obj
 0001:000002ac       ??__Efout@std@@YAXXZ       100012ac f   libcpmt:cout.obj
 0001:000002e6       ??__Einit_cout@std@@YAXXZ  100012e6 f   libcpmt:cout.obj
 0001:000002f0       ??__Einitlocks@@YAXXZ      100012f0 f   libcpmt:cout.obj
 0001:00000306       ??__E_Fac_tidy_reg@std@@YAXXZ 10001306 f   libcpmt:locale0.obj
 0001:00000312       ??__Eclassic_locale@std@@YAXXZ 10001312 f   libcpmt:locale0.obj
 0001:0000031e       ??__Einit_atexit@@YAXXZ    1000131e f   libcpmt:iosptrs.obj
 0001:0000032a       ??__Einitlocks@std@@YAXXZ  1000132a f   libcpmt:iosptrs.obj
 0001:00000340       ?FunctionCallbackWrapper@imp@Nan@@YAXABV?$FunctionCallbackInfo@VValue@v8@@@v8@@@Z 10001340 f   addon.obj
 0001:00000530       ?termAtExitDominoSession@@YAXPAX@Z 10001530 f   addon.obj
 0001:00000ae0       __register_addon           10001ae0 f   addon.obj
 0001:00000af0       __TlgDefineProvider_annotation__Tlg_Microsoft_CRTProviderProv 10001af0 f i libvcruntime:telemetry.obj
 0001:0000220f       __catch$?getV8Data@DataHelper@@SA?AV?$Local@VArray@v8@@@v8@@V?$vector@V?$map@V?$basic_string@DU?$char_traits@D@std@@V?$allocator@D@2@@std@@VItemValue@@U?$less@V?$basic_string@DU?$char_traits@D@std@@V?$allocator@D@2@@std@@@2@V?$allocator@U?$pair@$$CBV?$basic_string@DU?$char_traits@D@std@@V?$allocator@D@2@@std@@VItemValue@@@std@@@2@@std@@V?$allocator@V?$map@V?$basic_string@DU?$char_traits@D@std@@V?$allocator@D@2@@std@@VItemValue@@U?$less@V?$basic_string@DU?$char_traits@D@std@@V?$allocator@D@2@@std@@@2@V?$allocator@U?$pair@$$CBV?$basic_string@DU?$char_traits@D@std@@V?$allocator@D@2@@std@@VItemValue@@@std@@@2@@std@@@2@@std@@@Z$0 1000320f f   DataHelper.obj
 0001:00004980       __catch$?Execute@DeleteDocumentWorker@@UAEXXZ$0 10005980 f i delete_document_async.obj
 0001:00005916       __catch$?Execute@DocumentWorker@@UAEXXZ$0 10006916 f i document_async.obj
 0001:00007064       __catch$?Execute@ResponseDocumentsWorker@@UAEXXZ$0 10008064 f i getresponse_documents.obj
 0001:00007ab0       _no_op_initialize          10008ab0 f i libucrt:wsetlocale.obj
 0001:000080dd       __catch$?DateValue@ItemValue@@QAEXPAVLNDatetime@@@Z$0 100090dd f   ItemValue.obj
 0001:0000873e       __catch$?Execute@MakeResponseDocumentWorker@@UAEXXZ$0 1000973e f i makeresponse_document.obj
 0001:0000933d       __catch$?Execute@ReplicateDatabaseWorker@@UAEXXZ$0 1000a33d f i replicate_database_async.obj
 0001:0000a5e8       __catch$?Execute@SaveDocumentWorker@@UAEXXZ$0 1000b5e8 f i save_document_async.obj
 0001:0000a881       __catch$?Execute@SaveDocumentWorker@@UAEXXZ$2 1000b881 f i save_document_async.obj
 0001:0000c596       __catch$?Execute@ViewWorker@@UAEXXZ$0 1000d596 f i view_async.obj
 0001:0000ecd0       ?load_exe_hook@@YGP6GHXZIPAUDelayLoadInfo@@@Z 1000fcd0 f   win_delay_load_hook.obj
 0001:000102dd       _memcpy_s                  100112dd f   libcpmt:cout.obj
 0001:00010720       _tidy_global               10011720 f   libcpmt:locale0.obj
 0001:00010f66       ?initialize_pointers@@YAHXZ 10011f66 f   libcpmt:winapisupp.obj
 0001:0001149a       ?find_pe_section@@YAPAU_IMAGE_SECTION_HEADER@@QAEI@Z 1001249a f   LIBCMT:utility.obj
 0001:000117bf       ?__scrt_initialize_thread_safe_statics@@YAHXZ 100127bf f   LIBCMT:thread_safe_statics.obj
 0001:0001189c       ?__scrt_uninitialize_thread_safe_statics@@YAXXZ 1001289c f   LIBCMT:thread_safe_statics.obj
 0001:00011a6d       ?dllmain_crt_dispatch@@YGHQAUHINSTANCE__@@KQAX@Z 10012a6d f   LIBCMT:dll_dllmain.obj
 0001:00011ac0       ?dllmain_crt_process_attach@@YAHQAUHINSTANCE__@@QAX@Z 10012ac0 f   LIBCMT:dll_dllmain.obj
 0001:00011bd2       ?dllmain_crt_process_detach@@YAH_N@Z 10012bd2 f   LIBCMT:dll_dllmain.obj
 0001:00011c4f       ?dllmain_dispatch@@YAHQAUHINSTANCE__@@KQAX@Z 10012c4f f   LIBCMT:dll_dllmain.obj
 0001:00011d58       ?dllmain_raw@@YGHQAUHINSTANCE__@@KQAX@Z 10012d58 f   LIBCMT:dll_dllmain.obj
 0001:00011e80       $$000000                   10012e80     LIBCMT:alloca16.obj
 0001:00011eb0       $$000000                   10012eb0     LIBCMT:llmul.obj
 0001:00011ef0       $$000000                   10012ef0     LIBCMT:ulldiv.obj
 0001:00012430       $$000000                   10013430     LIBCMT:_sehprolg4_.obj
 0001:00012640       $$000000                   10013640     LIBCMT:chkstk.obj
 0001:00012670       $$000000                   10013670     libvcruntime:memmove.obj
 0001:000128d4       TrailingUpVec              100138d4     libvcruntime:memmove.obj
 0001:00012980       TrailingDownVec            10013980     libvcruntime:memmove.obj
 0001:00012cfc       ?CallCatchBlock@@YAPAXPAUEHExceptionRecord@@PAUEHRegistrationNode@@PAU_CONTEXT@@PBU_s_FuncInfo@@PAXHK@Z 10013cfc f   libvcruntime:frame.obj
 0001:00012eb8       ?CallUnexpected@@YAXPBU_s_ESTypeList@@@Z 10013eb8 f   libvcruntime:frame.obj
 0001:00012ed8       __catch$?CallUnexpected@@YAXPBU_s_ESTypeList@@@Z$0 10013ed8 f   libvcruntime:frame.obj
 0001:00012ef2       ?CatchIt@@YAXPAUEHExceptionRecord@@PAUEHRegistrationNode@@PAU_CONTEXT@@PAXPBU_s_FuncInfo@@PBU_s_HandlerType@@PBU_s_CatchableType@@PBU_s_TryBlockMapEntry@@H1E@Z 10013ef2 f   libvcruntime:frame.obj
 0001:00012f6d       ?ExFilterRethrow@@YAHPAU_EXCEPTION_POINTERS@@@Z 10013f6d f   libvcruntime:frame.obj
 0001:00012fb7       ?FindHandler@@YAXPAUEHExceptionRecord@@PAUEHRegistrationNode@@PAU_CONTEXT@@PAXPBU_s_FuncInfo@@EH1@Z 10013fb7 f   libvcruntime:frame.obj
 0001:00013315       ?FindHandlerForForeignException@@YAXPAUEHExceptionRecord@@PAUEHRegistrationNode@@PAU_CONTEXT@@PAXPBU_s_FuncInfo@@HH1@Z 10014315 f   libvcruntime:frame.obj
 0001:00013430       ?IsInExceptionSpec@@YAEPAUEHExceptionRecord@@PBU_s_ESTypeList@@@Z 10014430 f   libvcruntime:frame.obj
 0001:000134cc       ?Is_bad_exception_allowed@@YAEPBU_s_ESTypeList@@@Z 100144cc f   libvcruntime:frame.obj
 0001:00013e60       $$000000                   10014e60     libvcruntime:memcpy.obj
 0001:000140c4       TrailingUpVec              100150c4     libvcruntime:memcpy.obj
 0001:00014170       TrailingDownVec            10015170     libvcruntime:memcpy.obj
 0001:000143e0       $$000000                   100153e0     libvcruntime:memset.obj
 0001:00014540       $$000000                   10015540     libvcruntime:memchr.obj
 0001:00015ced       $LN1281                    10016ced     libvcruntime:_memcmp_.obj
 0001:00015de0       _ValidateLocalCookies      10016de0 f   libvcruntime:_chandler4_.obj
 0001:00015f7b       ?try_get_function@@YAPAXW4function_id@?A0x1821e63c@@QBDQBW4module_id@2@2@Z 10016f7b f   libvcruntime:winapi_downlevel.obj
 0001:0001601b       ?try_get_module@@YAPAUHINSTANCE__@@W4module_id@?A0x1821e63c@@@Z 1001701b f   libvcruntime:winapi_downlevel.obj
 0001:00016329       ?__telemetry_getfilename@@YAXPAUHINSTANCE__@@PA_WK@Z 10017329 f   libvcruntime:telemetry.obj
 0001:00016680       $$000000                   10017680     libvcruntime:lowhelpr.obj
 0001:00016740       $$000000                   10017740     libvcruntime:_exsup4_.obj
 0001:000167d0       __unwind_handler4          100177d0 f   libvcruntime:_exsup4_.obj
 0001:000168a0       $$000000                   100178a0     libvcruntime:_exsup_.obj
 0001:000168c0       __unwind_handler           100178c0 f   libvcruntime:_exsup_.obj
 0001:00016c7a       ??$common_assert_to_message_box@_W@@YAXQB_W0IQAX@Z 10017c7a f   libucrt:assert.obj
 0001:00016d16       ??$common_assert_to_message_box_build_string@_W@@YAXQA_WIQB_W1IQAX@Z 10017d16 f   libucrt:assert.obj
 0001:0001725b       ??$common_assert_to_stderr@_W@@YAXQB_W0I@Z 1001825b f   libucrt:assert.obj
 0001:00017306       ?common_assert_to_stderr_direct@@YAXQB_W0I@Z 10018306 f   libucrt:assert.obj
 0001:000173b7       ?get_assert_format@@YAPB_W_W@Z 100183b7 f   libucrt:assert.obj
 0001:00017474       _memcpy_s                  10018474 f   libucrt:assert.obj
 0001:00017474       _memcpy_s                  10018474 f   libucrt:cfout.obj
 0001:00017474       _memcpy_s                  10018474 f   libucrt:mbctype.obj
 0001:000175d4       ??$common_mktime@_J@@YA_JQAUtm@@_N@Z 100185d4 f   libucrt:mktime.obj
 0001:00017a29       ??$common_timespec_get@U_timespec64@@@@YAHQAU_timespec64@@H@Z 10018a29 f   libucrt:time.obj
 0001:00017aea       ??$common_localtime_s@_J@@YAHQAUtm@@QB_J@Z 10018aea f   libucrt:localtime.obj
 0001:00017dc0       $$000000                   10018dc0     libucrt:strcspn.obj
 0001:00017e7f       ??$common_vsprintf@Vformat_validation_base@__crt_stdio_output@@D@@YAH_KQADIQBDQAU__crt_locale_pointers@@1@Z 10018e7f f   libucrt:output.obj
 0001:00017ffb       ??$common_vsprintf@Vstandard_base@__crt_stdio_output@@_W@@YAH_KQA_WIQB_WQAU__crt_locale_pointers@@QAD@Z 10018ffb f   libucrt:output.obj
 0001:00018180       ??$common_vsprintf_s@D@@YAH_KQADIQBDQAU__crt_locale_pointers@@1@Z 10019180 f   libucrt:output.obj
 0001:00018704       ??R<lambda_481dd5778c961fbcd3b60b650e9b9dc4>@@QBEHXZ 10019704 f   libucrt:output.obj
 0001:00018a9f       $LN52                      10019a9f     libucrt:output.obj
 0001:00018bbf       $LN54                      10019bbf     libucrt:output.obj
 0001:00018cdf       $LN54                      10019cdf     libucrt:output.obj
 0001:00019ab5       $LN19                      1001aab5     libucrt:output.obj
 0001:0001aeb4       _common_flush_all          1001beb4 f   libucrt:fflush.obj
 0001:0001b367       ?common_fseek@@YAHV__crt_stdio_stream@@_JH@Z 1001c367 f   libucrt:fseek.obj
 0001:0001b3ee       ?common_fseek_binary_mode_read_only_fast_track_nolock@@YA_NV__crt_stdio_stream@@_JH@Z 1001c3ee f   libucrt:fseek.obj
 0001:0001b4c7       ?common_fseek_nolock@@YAHV__crt_stdio_stream@@_JH@Z 1001c4c7 f   libucrt:fseek.obj
 0001:0001b634       ??R<lambda_b51c0495177f500e782686251704ae76>@@QBEIXZ 1001c634 f   libucrt:fwrite.obj
 0001:0001b8c4       ??R<lambda_b721fa326cdb32351d23dfa67958c160>@@QBEHXZ 1001c8c4 f   libucrt:setvbuf.obj
 0001:0001b95e       ?set_buffer@@YAHV__crt_stdio_stream@@QADIH@Z 1001c95e f   libucrt:setvbuf.obj
 0001:0001bb66       _call_wsetlocale           1001cb66 f   libucrt:setlocale.obj
 0001:0001c3e5       ?x_ismbbtype_l@@YAHPAU__crt_locale_pointers@@IHH@Z 1001d3e5 f   libucrt:ismbbyte.obj
 0001:0001c5a4       ??$common_tox_l@$1?internal_isupper_l@@YA_NHQAU__crt_locale_pointers@@@Z$1?internal_map_lower@@YAHH0@Z@@YAHHKQAU__crt_locale_pointers@@@Z 1001d5a4 f   libucrt:tolower_toupper.obj
 0001:0001c6ee       ?internal_isupper_l@@YA_NHQAU__crt_locale_pointers@@@Z 1001d6ee f   libucrt:tolower_toupper.obj
 0001:0001caa0       $$000000                   1001daa0     libucrt:sqrt.obj
 0001:0001cced       ?atexit_exception_filter@@YAHK@Z 1001dced f   libucrt:exit.obj
 0001:0001cd00       ?common_exit@@YAXHW4_crt_exit_cleanup_mode@@W4_crt_exit_return_mode@@@Z 1001dd00 f   libucrt:exit.obj
 0001:0001ce19       ?exit_or_terminate_process@@YAXI@Z 1001de19 f   libucrt:exit.obj
 0001:0001ce5a       ?is_managed_app@@YA_NXZ    1001de5a f   libucrt:exit.obj
 0001:0001ce9e       ?try_cor_exit_process@@YAXI@Z 1001de9e f   libucrt:exit.obj
 0001:0001cf42       ??$common_get_or_create_environment_nolock@D@@YAPAPADXZ 1001df42 f   libucrt:environment_initialization.obj
 0001:0001cf71       ??$common_initialize_environment_nolock@D@@YAHXZ 1001df71 f   libucrt:environment_initialization.obj
 0001:0001cfca       ??$create_environment@D@@YAQAPADQAD@Z 1001dfca f   libucrt:environment_initialization.obj
 0001:0001d09b       ??$free_environment@D@@YAXQAPAD@Z 1001e09b f   libucrt:environment_initialization.obj
 0001:0001d09b       ??$free_environment@_W@@YAXQAPA_W@Z 1001e09b f   libucrt:environment_initialization.obj
 0001:0001d0ca       ??$initialize_environment_by_cloning_nolock@D@@YAHXZ 1001e0ca f   libucrt:environment_initialization.obj
 0001:0001d189       ??$uninitialize_environment_internal@D@@YAXAAPAPAD@Z 1001e189 f   libucrt:environment_initialization.obj
 0001:0001d1a4       ??$uninitialize_environment_internal@_W@@YAXAAPAPA_W@Z 1001e1a4 f   libucrt:environment_initialization.obj
 0001:0001d2f2       ??R<lambda_275893d493268fdec8709772e3fcec0e>@@QBEHXZ 1001e2f2 f   libucrt:onexit.obj
 0001:0001d412       ??R<lambda_4e60a939b0d047cfe11ddc22648dfba9>@@QBEHXZ 1001e412 f   libucrt:onexit.obj
 0001:0001d5e7       _initialize_global_variables 1001e5e7 f   libucrt:initialization.obj
 0001:0001d5f9       _initialize_c              1001e5f9 f   libucrt:initialization.obj
 0001:0001d613       _uninitialize_environment  1001e613 f   libucrt:initialization.obj
 0001:0001d61b       _uninitialize_global_state_isolation 1001e61b f   libucrt:initialization.obj
 0001:0001d61b       _initialize_global_state_isolation 1001e61b f   libucrt:initialization.obj
 0001:0001d61b       _uninitialize_c            1001e61b f   libucrt:initialization.obj
 0001:0001d61b       _initialize_environment    1001e61b f   libucrt:initialization.obj
 0001:0001d61b       _report_memory_leaks       1001e61b f   libucrt:initialization.obj
 0001:0001d61e       _initialize_pointers       1001e61e f   libucrt:initialization.obj
 0001:0001d65b       _uninitialize_vcruntime    1001e65b f   libucrt:initialization.obj
 0001:0001d664       _uninitialize_allocated_memory 1001e664 f   libucrt:initialization.obj
 0001:0001e38a       ?get_global_action_nolock@@YAPAP6AXH@ZH@Z 1001f38a f   libucrt:signal.obj
 0001:0001e3cc       ?siglookup@@YAPAU__crt_signal_action_t@@HQAU1@@Z 1001f3cc f   libucrt:signal.obj
 0001:0001e83b       ?construct_ptd@@YAXQAU__acrt_ptd@@QAPAU__crt_locale_data@@@Z 1001f83b f   libucrt:per_thread_data.obj
 0001:0001e8b4       ?destroy_fls@@YGXPAX@Z     1001f8b4 f   libucrt:per_thread_data.obj
 0001:0001e8d5       ?destroy_ptd@@YAXQAU__acrt_ptd@@@Z 1001f8d5 f   libucrt:per_thread_data.obj
 0001:0001e97e       ?replace_current_thread_locale_nolock@@YAXQAU__acrt_ptd@@QAU__crt_locale_data@@@Z 1001f97e f   libucrt:per_thread_data.obj
 0001:0001eb4a       ??$common_xtox@K_W@@YAHKQA_WII_N@Z 1001fb4a f   libucrt:xtoa.obj
 0001:0001ebd8       ??$common_xtox_s@K_W@@YAHKQA_WII_N@Z 1001fbd8 f   libucrt:xtoa.obj
 0001:0001ed20       ??$common_tcsncat_s@_W@@YAHQA_WIQB_WI@Z 1001fd20 f   libucrt:wcsncat_s.obj
 0001:0001ee14       ??$common_show_message_box@_W@@YAHQB_W0I@Z 1001fe14 f   libucrt:crtmbox.obj
 0001:0001eeed       ??$message_box_wait_thread@_W@@YGKQAX@Z 1001feed f   libucrt:crtmbox.obj
 0001:0001f027       ??$common_gmtime_s@_J@@YAHQAUtm@@QB_J@Z 10020027 f   libucrt:gmtime.obj
 0001:0001f174       ?compute_year@@YAHAA_JAA_N@Z 10020174 f   libucrt:gmtime.obj
 0001:0001f261       ?_isindst_nolock@@YAHQAUtm@@@Z 10020261 f   libucrt:tzset.obj
 0001:0001f448       ?cvtdate@@YAXW4transition_type@?A0xdb49773f@@W4date_type@2@HHHHHHHHH@Z 10020448 f   libucrt:tzset.obj
 0001:0001f598       ?tzset_from_environment_nolock@@YAXPAD@Z 10020598 f   libucrt:tzset.obj
 0001:0001f76d       ?tzset_from_system_nolock@@YAXXZ 1002076d f   libucrt:tzset.obj
 0001:0001f8c8       ?tzset_nolock@@YAXXZ       100208c8 f   libucrt:tzset.obj
 0001:0001fa43       ?<helper_func_stdcall>@<lambda_5a01b672d24c8480ee9d6bdb50dd3881>@@CGHPA_W@Z 10020a43 f   libucrt:winapi_thunks.obj
 0001:0001fb54       ?try_get_CompareStringEx@@YAP6GHPB_WK0H0HPAU_nlsversioninfo@@PAXJ@ZXZ 10020b54 f   libucrt:winapi_thunks.obj
 0001:0001fb6e       ?try_get_MessageBoxA@@YAP6GHPAUHWND__@@PBD1I@ZXZ 10020b6e f   libucrt:winapi_thunks.obj
 0001:0001fb88       ?try_get_MessageBoxW@@YAP6GHPAUHWND__@@PB_W1I@ZXZ 10020b88 f   libucrt:winapi_thunks.obj
 0001:0001fba2       ?try_get_function@@YAPAXW4function_id@?A0x352e5c4b@@QBDQBW4module_id@2@2@Z 10020ba2 f   libucrt:winapi_thunks.obj
 0001:0001fc3e       ?try_get_module@@YAPAUHINSTANCE__@@W4module_id@?A0x352e5c4b@@@Z 10020c3e f   libucrt:winapi_thunks.obj
 0001:00020833       ?fp_format_a@@YAHQBNPADIQADIH_NIQAU__crt_locale_pointers@@@Z 10021833 f   libucrt:cvt.obj
 0001:00020b36       ?fp_format_e@@YAHQBNQADI1IH_NIQAU__crt_locale_pointers@@@Z 10021b36 f   libucrt:cvt.obj
 0001:00020bd1       ?fp_format_e_internal@@YAHQADIH_NIQAU_strflt@@1QAU__crt_locale_pointers@@@Z 10021bd1 f   libucrt:cvt.obj
 0001:00020d1c       ?fp_format_f@@YAHQBNQADI1IHQAU__crt_locale_pointers@@@Z 10021d1c f   libucrt:cvt.obj
 0001:00020da9       ?fp_format_f_internal@@YAHQADIHQAU_strflt@@_NQAU__crt_locale_pointers@@@Z 10021da9 f   libucrt:cvt.obj
 0001:00020e80       ?fp_format_g@@YAHQBNQADI1IH_NIQAU__crt_locale_pointers@@@Z 10021e80 f   libucrt:cvt.obj
 0001:00020f48       ?fp_format_nan_or_infinity@@YAHW4__acrt_fp_class@@_NPADI1@Z 10021f48 f   libucrt:cvt.obj
 0001:00021040       ?shift_bytes@@YAXQADI0H@Z  10022040 f   libucrt:cvt.obj
 0001:000211be       ?fputwc_binary_nolock@@YAG_WV__crt_stdio_stream@@@Z 100221be f   libucrt:fputwc.obj
 0001:000214e5       ??R<lambda_2af78c5f5901b1372d98f9ab3177dfa6>@@QBEXXZ 100224e5 f   libucrt:wsetlocale.obj
 0001:00021541       ??R<lambda_e378711a6f6581bf7f0efd7cdf97f5d9>@@QBEXXZ 10022541 f   libucrt:wsetlocale.obj
 0001:000218a1       __copytlocinfo_nolock      100228a1 f   libucrt:wsetlocale.obj
 0001:00021d08       __wsetlocale_get_all       10022d08 f   libucrt:wsetlocale.obj
 0001:00021ea1       __wsetlocale_nolock        10022ea1 f   libucrt:wsetlocale.obj
 0001:00022186       __wsetlocale_set_cat       10023186 f   libucrt:wsetlocale.obj
 0001:00022552       ?initialize_inherited_file_handles_nolock@@YAXXZ 10023552 f   libucrt:ioinit.obj
 0001:00022608       ?initialize_stdio_handles_nolock@@YAXXZ 10023608 f   libucrt:ioinit.obj
 0001:00023431       ?write_double_translated_ansi_nolock@@YA?AUwrite_result@?A0x47fa6670@@HQBDI@Z 10024431 f   libucrt:write.obj
 0001:000235e4       ?write_double_translated_unicode_nolock@@YA?AUwrite_result@?A0x47fa6670@@QBDI@Z 100245e4 f   libucrt:write.obj
 0001:00023651       ?write_requires_double_translation_nolock@@YA_NH@Z 10024651 f   libucrt:write.obj
 0001:000236c7       ?write_text_ansi_nolock@@YA?AUwrite_result@?A0x47fa6670@@HQBDI@Z 100246c7 f   libucrt:write.obj
 0001:000237a6       ?write_text_utf16le_nolock@@YA?AUwrite_result@?A0x47fa6670@@HQBDI@Z 100247a6 f   libucrt:write.obj
 0001:00023894       ?write_text_utf8_nolock@@YA?AUwrite_result@?A0x47fa6670@@HQBDI@Z 10024894 f   libucrt:write.obj
 0001:00023cb8       ??$common_refill_and_read_nolock@D@@YAHV__crt_stdio_stream@@@Z 10024cb8 f   libucrt:_filbuf.obj
 0001:00023e44       ??$common_ftell@_J@@YA_JV__crt_stdio_stream@@@Z 10024e44 f   libucrt:ftell.obj
 0001:00023ec0       ??$common_ftell_nolock@_J@@YA_JV__crt_stdio_stream@@@Z 10024ec0 f   libucrt:ftell.obj
 0001:00024055       ?common_ftell_read_mode_nolock@@YA_JV__crt_stdio_stream@@_J1@Z 10025055 f   libucrt:ftell.obj
 0001:000241d9       ?common_ftell_translated_utf8_nolock@@YA_JV__crt_stdio_stream@@_J@Z 100251d9 f   libucrt:ftell.obj
 0001:0002438a       ??$common_flush_and_write_nolock@D@@YAHHV__crt_stdio_stream@@@Z 1002538a f   libucrt:_flsbuf.obj
 0001:0002449b       ??$common_flush_and_write_nolock@_W@@YAHHV__crt_stdio_stream@@@Z 1002549b f   libucrt:_flsbuf.obj
 0001:000245b0       ??$write_buffer_nolock@D@@YA_NDV__crt_stdio_stream@@@Z 100255b0 f   libucrt:_flsbuf.obj
 0001:0002467c       ??$write_buffer_nolock@_W@@YA_N_WV__crt_stdio_stream@@@Z 1002567c f   libucrt:_flsbuf.obj
 0001:00024766       ??$common_lseek@_J@@YA_JH_JH@Z 10025766 f   libucrt:lseek.obj
 0001:0002486b       ??$common_lseek_nolock@_J@@YA_JH_JH@Z 1002586b f   libucrt:lseek.obj
 0001:0002497c       ?_mbstowcs_l_helper@@YAIPA_WPBDIPAU__crt_locale_pointers@@@Z 1002597c f   libucrt:mbstowcs.obj
 0001:00024bf8       ?_wcstombs_l_helper@@YAIPADPB_WIPAU__crt_locale_pointers@@@Z 10025bf8 f   libucrt:wcstombs.obj
 0001:00025039       ?InternalGetLocaleInfoA@@YAHQAU__crt_locale_pointers@@QB_WKQADH@Z 10026039 f   libucrt:getlocaleinfoa.obj
 0001:00025403       ?__acrt_LCMapStringA_stat@@YAHPAU__crt_locale_pointers@@PB_WKPBDHPADHHH@Z 10026403 f   libucrt:lcmapstringa.obj
 0001:000258c0       $$000000                   100268c0     libucrt:87disp.obj
 0001:00025ac0       $$000000                   10026ac0     libucrt:genexcep.obj
 0001:00025b20       $$000000                   10026b20     libucrt:common.obj
 0001:00025d17       ??R<lambda_ad1ced32f4ac17aa236e5ef05d6b3b7c>@@QBEXXZ 10026d17 f   libucrt:mbctype.obj
 0001:00025ddb       ?CPtoLocaleName@@YAPB_WH@Z 10026ddb f   libucrt:mbctype.obj
 0001:00025e19       ?getSystemCP@@YAHH@Z       10026e19 f   libucrt:mbctype.obj
 0001:00025e8c       ?setSBCS@@YAXPAU__crt_multibyte_data@@@Z 10026e8c f   libucrt:mbctype.obj
 0001:00025ef1       ?setSBUpLow@@YAXPAU__crt_multibyte_data@@@Z 10026ef1 f   libucrt:mbctype.obj
 0001:00026085       ?setmbcp_internal@@YAHH_N@Z 10027085 f   libucrt:mbctype.obj
 0001:00026437       ?find_end_of_double_null_terminated_sequence@@YAPB_WQB_W@Z 10027437 f   libucrt:get_environment_from_os.obj
 0001:000264f1       ??$common_set_variable_in_environment_nolock@D@@YAHQADH@Z 100274f1 f   libucrt:setenv.obj
 0001:0002672c       ??$copy_environment@D@@YAPAPADQAPAD@Z 1002772c f   libucrt:setenv.obj
 0001:000267dd       ??$find_in_environment_nolock@D@@YAHQBDI@Z 100277dd f   libucrt:setenv.obj
 0001:00026e03       ??$common_tcsncpy_s@_W@@YAHQA_WIQB_WI@Z 10027e03 f   libucrt:wcsncpy_s.obj
 0001:00026edb       ??$common_getenv_nolock@D@@YAPADQBD@Z 10027edb f   libucrt:getenv.obj
 0001:00026f4b       ??$common_getenv_s@D@@YAHQAIQADIQBD@Z 10027f4b f   libucrt:getenv.obj
 0001:00026fa0       ??$common_getenv_s_nolock@D@@YAHQAIQADIQBD@Z 10027fa0 f   libucrt:getenv.obj
 0001:00027053       ??$common_tcsncpy_s@D@@YAHQADIQBDI@Z 10028053 f   libucrt:strncpy_s.obj
 0001:0002710f       ?GetTableIndexFromLocaleName@@YAHPB_W@Z 1002810f f   libucrt:lcidtoname_downlevel.obj
 0001:0002936f       ?free_crt_array_internal@@YAXQAPBXI@Z 1002a36f f   libucrt:inittime.obj
 0001:000293ab       ?initialize_lc_time@@YA_NQAU__crt_lc_time_data@@QAU__crt_locale_data@@@Z 1002a3ab f   libucrt:inittime.obj
 0001:0002985a       _GetLocaleNameFromDefault  1002a85a f   libucrt:get_qualified_locale.obj
 0001:000298e3       _GetLocaleNameFromLangCountry 1002a8e3 f   libucrt:get_qualified_locale.obj
 0001:0002997d       _GetLocaleNameFromLanguage 1002a97d f   libucrt:get_qualified_locale.obj
 0001:000299d8       _GetPrimaryLen             1002a9d8 f   libucrt:get_qualified_locale.obj
 0001:00029a0c       _LangCountryEnumProcEx@12  1002aa0c f   libucrt:get_qualified_locale.obj
 0001:00029cf6       _LanguageEnumProcEx@12     1002acf6 f   libucrt:get_qualified_locale.obj
 0001:00029db7       _ProcessCodePage           1002adb7 f   libucrt:get_qualified_locale.obj
 0001:00029e9e       _TestDefaultCountry        1002ae9e f   libucrt:get_qualified_locale.obj
 0001:00029ee9       _TranslateName             1002aee9 f   libucrt:get_qualified_locale.obj
 0001:0002a127       _CountryEnumProc@4         1002b127 f   libucrt:getqloc_downlevel.obj
 0001:0002a1d0       _GetLcidFromCountry        1002b1d0 f   libucrt:getqloc_downlevel.obj
 0001:0002a21b       _GetLcidFromLangCountry    1002b21b f   libucrt:getqloc_downlevel.obj
 0001:0002a2b6       _GetLcidFromLanguage       1002b2b6 f   libucrt:getqloc_downlevel.obj
 0001:0002a317       _GetPrimaryLen             1002b317 f   libucrt:getqloc_downlevel.obj
 0001:0002a343       _LangCountryEnumProc@4     1002b343 f   libucrt:getqloc_downlevel.obj
 0001:0002a593       _LanguageEnumProc@4        1002b593 f   libucrt:getqloc_downlevel.obj
 0001:0002a66b       _LcidFromHexString         1002b66b f   libucrt:getqloc_downlevel.obj
 0001:0002a6bc       _ProcessCodePage           1002b6bc f   libucrt:getqloc_downlevel.obj
 0001:0002a79f       _TestDefaultCountry        1002b79f f   libucrt:getqloc_downlevel.obj
 0001:0002a7c3       _TestDefaultLanguage       1002b7c3 f   libucrt:getqloc_downlevel.obj
 0001:0002a833       _TranslateName             1002b833 f   libucrt:getqloc_downlevel.obj
 0001:0002ad64       ??$translate_text_mode_nolock@D@@YAHHQADI@Z 1002bd64 f   libucrt:read.obj
 0001:0002aebb       ??$translate_text_mode_nolock@_W@@YAHHQA_WI@Z 1002bebb f   libucrt:read.obj
 0001:0002b07b       ?translate_ansi_or_utf8_nolock@@YAHHQADIQA_WI@Z 1002c07b f   libucrt:read.obj
 0001:0002b1cb       ?translate_utf16_from_console_nolock@@YAHHQA_WI@Z 1002c1cb f   libucrt:read.obj
 0001:0002b8e8       ?initialize_multibyte@@YAHXZ 1002c8e8 f   libucrt:multibyte_initializer.obj
 0001:0002bae0       $$000000                   1002cae0     libucrt:log10.obj
 0001:0002bc30       $$000000                   1002cc30     libucrt:ceil_pentium4.obj
 0001:0002bf06       ___get_abstract_control_sse2 1002cf06 f   libucrt:_fenvutils.obj
 0001:0002bf83       ___get_abstract_control_x87 1002cf83 f   libucrt:_fenvutils.obj
 0001:0002bff6       ___get_machine_control     1002cff6 f   libucrt:_fenvutils.obj
 0001:0002c067       ___get_machine_control_sse2 1002d067 f   libucrt:_fenvutils.obj
 0001:0002c0e7       ___get_machine_status_sse2 1002d0e7 f   libucrt:_fenvutils.obj
 0001:0002c148       ___get_machine_status_x87  1002d148 f   libucrt:_fenvutils.obj
 0001:0002c52b       ?InternalCompareStringA@@YAHPAU__crt_locale_pointers@@PB_WKPBDH2HH@Z 1002d52b f   libucrt:comparestringa.obj
 0001:0002c910       $$000000                   1002d910     libucrt:log10_pentium4.obj
 0001:0002cba0       $$000000                   1002dba0     libucrt:87tran.obj
 0001:0002d070       $$000000                   1002e070     libucrt:_strnicm.obj
 0001:0002d960       $$000000                   1002e960     LIBCMT:ulldvrm.obj
 0001:0002da00       $$000000                   1002ea00     LIBCMT:lldiv.obj
 0001:0002dab0       $$000000                   1002eab0     LIBCMT:llrem.obj
 0001:0002db70       $$000000                   1002eb70     LIBCMT:lldvrm.obj
 0001:0002dc50       $$000000                   1002ec50     LIBCMT:_sehprolg4gs_.obj
 0001:0002dcb0       $$000000                   1002ecb0     LIBCMT:ullshr.obj
 0001:0002dcd0       $$000000                   1002ecd0     LIBCMT:llshl.obj
 0001:0002dcf0       $$000000                   1002ecf0     LIBCMT:_ftol2_.obj
 0001:0002ddb0       $$000000                   1002edb0     libvcruntime:strrchr.obj
 0001:0002def0       $$000000                   1002eef0     libvcruntime:strchr.obj
 0001:0002e0d0       $$000000                   1002f0d0     LIBCMT:_ftol3_.obj
 0001:0002e450       __ehhandler$?getV8Data@DataHelper@@SA?AV?$Local@VArray@v8@@@v8@@V?$vector@V?$map@V?$basic_string@DU?$char_traits@D@std@@V?$allocator@D@2@@std@@VItemValue@@U?$less@V?$basic_string@DU?$char_traits@D@std@@V?$allocator@D@2@@std@@@2@V?$allocator@U?$pair@$$CBV?$basic_string@DU?$char_traits@D@std@@V?$allocator@D@2@@std@@VItemValue@@@std@@@2@@std@@V?$allocator@V?$map@V?$basic_string@DU?$char_traits@D@std@@V?$allocator@D@2@@std@@VItemValue@@U?$less@V?$basic_string@DU?$char_traits@D@std@@V?$allocator@D@2@@std@@@2@V?$allocator@U?$pair@$$CBV?$basic_string@DU?$char_traits@D@std@@V?$allocator@D@2@@std@@VItemValue@@@std@@@2@@std@@@2@@std@@@Z 1002f450 f   DataHelper.obj
 0001:0002e480       __ehhandler$?Execute@DeleteDocumentWorker@@UAEXXZ 1002f480 f   delete_document_async.obj
 0001:0002e4b0       __ehhandler$?Execute@DocumentWorker@@UAEXXZ 1002f4b0 f   document_async.obj
 0001:0002e4e0       __ehhandler$?Execute@ResponseDocumentsWorker@@UAEXXZ 1002f4e0 f   getresponse_documents.obj
 0001:0002e510       __ehhandler$?DateValue@ItemValue@@QAEXPAVLNDatetime@@@Z 1002f510 f   ItemValue.obj
 0001:0002e530       __ehhandler$?Execute@MakeResponseDocumentWorker@@UAEXXZ 1002f530 f   makeresponse_document.obj
 0001:0002e560       __ehhandler$?Execute@ReplicateDatabaseWorker@@UAEXXZ 1002f560 f   replicate_database_async.obj
 0001:0002e590       __ehhandler$?Execute@SaveDocumentWorker@@UAEXXZ 1002f590 f   save_document_async.obj
 0001:0002e5c0       __ehhandler$?Execute@ViewWorker@@UAEXXZ 1002f5c0 f   view_async.obj
 0001:0002e5eb       __unwindfunclet$??$use_facet@V?$codecvt@DDU_Mbstatet@@@std@@@std@@YAABV?$codecvt@DDU_Mbstatet@@@0@ABVlocale@0@@Z$0 1002f5eb f   libcpmt:cout.obj
 0001:0002e5f3       __ehhandler$??$use_facet@V?$codecvt@DDU_Mbstatet@@@std@@@std@@YAABV?$codecvt@DDU_Mbstatet@@@0@ABVlocale@0@@Z 1002f5f3 f   libcpmt:cout.obj
 0001:0002e60e       __unwindfunclet$??0?$basic_ostream@DU?$char_traits@D@std@@@std@@QAE@PAV?$basic_streambuf@DU?$char_traits@D@std@@@1@_N@Z$0 1002f60e f   libcpmt:cout.obj
 0001:0002e62a       __ehhandler$??0?$basic_ostream@DU?$char_traits@D@std@@@std@@QAE@PAV?$basic_streambuf@DU?$char_traits@D@std@@@1@_N@Z 1002f62a f   libcpmt:cout.obj
 0001:0002e645       __unwindfunclet$??1?$basic_ios@DU?$char_traits@D@std@@@std@@UAE@XZ$0 1002f645 f   libcpmt:cout.obj
 0001:0002e64b       __ehhandler$??1?$basic_ios@DU?$char_traits@D@std@@@std@@UAE@XZ 1002f64b f   libcpmt:cout.obj
 0001:0002e666       __unwindfunclet$??_D?$basic_ostream@DU?$char_traits@D@std@@@std@@QAEXXZ$1 1002f666 f   libcpmt:cout.obj
 0001:0002e66c       __unwindfunclet$??_D?$basic_ostream@DU?$char_traits@D@std@@@std@@QAEXXZ$2 1002f66c f   libcpmt:cout.obj
 0001:0002e672       __ehhandler$??_D?$basic_ostream@DU?$char_traits@D@std@@@std@@QAEXXZ 1002f672 f   libcpmt:cout.obj
 0001:0002e68d       __unwindfunclet$??_G?$basic_ios@DU?$char_traits@D@std@@@std@@UAEPAXI@Z$0 1002f68d f   libcpmt:cout.obj
 0001:0002e693       __unwindfunclet$??_G?$basic_ios@DU?$char_traits@D@std@@@std@@UAEPAXI@Z$1 1002f693 f   libcpmt:cout.obj
 0001:0002e699       __ehhandler$??_G?$basic_ios@DU?$char_traits@D@std@@@std@@UAEPAXI@Z 1002f699 f   libcpmt:cout.obj
 0001:0002e6b4       __unwindfunclet$??_Gios_base@std@@UAEPAXI@Z$0 1002f6b4 f   libcpmt:cout.obj
 0001:0002e6ba       __ehhandler$??_Gios_base@std@@UAEPAXI@Z 1002f6ba f   libcpmt:cout.obj
 0001:0002e6d5       __unwindfunclet$?_Endwrite@?$basic_filebuf@DU?$char_traits@D@std@@@std@@IAE_NXZ$0 1002f6d5 f   libcpmt:cout.obj
 0001:0002e6dd       __ehhandler$?_Endwrite@?$basic_filebuf@DU?$char_traits@D@std@@@std@@IAE_NXZ 1002f6dd f   libcpmt:cout.obj
 0001:0002e702       __unwindfunclet$?_Getcat@?$codecvt@DDU_Mbstatet@@@std@@SAIPAPBVfacet@locale@2@PBV42@@Z$0 1002f702 f   libcpmt:cout.obj
 0001:0002e70f       __ehhandler$?_Getcat@?$codecvt@DDU_Mbstatet@@@std@@SAIPAPBVfacet@locale@2@PBV42@@Z 1002f70f f   libcpmt:cout.obj
 0001:0002e72a       __unwindfunclet$??0?$basic_streambuf@DU?$char_traits@D@std@@@std@@IAE@XZ$0 1002f72a f   libcpmt:cout.obj
 0001:0002e72a       __unwindfunclet$?_Init@ios_base@std@@IAEXXZ$0 1002f72a f   libcpmt:cout.obj
 0001:0002e730       __ehhandler$??0?$basic_streambuf@DU?$char_traits@D@std@@@std@@IAE@XZ 1002f730 f   libcpmt:cout.obj
 0001:0002e730       __ehhandler$?_Init@ios_base@std@@IAEXXZ 1002f730 f   libcpmt:cout.obj
 0001:0002e74b       __unwindfunclet$?overflow@?$basic_filebuf@DU?$char_traits@D@std@@@std@@MAEHH@Z$0 1002f74b f   libcpmt:cout.obj
 0001:0002e753       __ehhandler$?overflow@?$basic_filebuf@DU?$char_traits@D@std@@@std@@MAEHH@Z 1002f753 f   libcpmt:cout.obj
 0001:0002e778       __unwindfunclet$?uflow@?$basic_filebuf@DU?$char_traits@D@std@@@std@@MAEHXZ$0 1002f778 f   libcpmt:cout.obj
 0001:0002e780       __ehhandler$?uflow@?$basic_filebuf@DU?$char_traits@D@std@@@std@@MAEHXZ 1002f780 f   libcpmt:cout.obj
 0001:0002e7a5       __ehhandler$??1_Fac_node@std@@QAE@XZ 1002f7a5 f   libcpmt:locale0.obj
 0001:0002e7c0       __ehhandler$??1_Locimp@locale@std@@MAE@XZ 1002f7c0 f   libcpmt:locale0.obj
 0001:0002e7c0       __ehhandler$??1?$basic_filebuf@DU?$char_traits@D@std@@@std@@UAE@XZ 1002f7c0 f   libcpmt:cout.obj
 0001:0002e7c0       __ehhandler$??1_Init_atexit@@QAE@XZ 1002f7c0 f   libcpmt:iosptrs.obj
 0001:0002e7db       __unwindfunclet$?_Init@locale@std@@CAPAV_Locimp@12@_N@Z$0 1002f7db f   libcpmt:locale0.obj
 0001:0002e7e3       __ehhandler$?_Init@locale@std@@CAPAV_Locimp@12@_N@Z 1002f7e3 f   libcpmt:locale0.obj
 0001:0002e7fe       __unwindfunclet$?_Locimp_dtor@_Locimp@locale@std@@CAXPAV123@@Z$0 1002f7fe f   libcpmt:locale0.obj
 0001:0002e806       __ehhandler$?_Locimp_dtor@_Locimp@locale@std@@CAXPAV123@@Z 1002f806 f   libcpmt:locale0.obj
 0001:0002e821       __ehhandler$?CallUnexpected@@YAXPBU_s_ESTypeList@@@Z 1002f821 f   libvcruntime:frame.obj
 0001:0002e840       ??__Fsession@@YAXXZ        1002f840 f   addon.obj
 0001:0002e851       ??__Finitlocks@std@@YAXXZ  1002f851 f   libcpmt:xlock.obj
 0001:0002e85b       ??__Fcout@std@@YAXXZ       1002f85b f   libcpmt:cout.obj
 0001:0002e865       ??__Ffout@std@@YAXXZ       1002f865 f   libcpmt:cout.obj
 0001:0002e86f       ??__Finitlocks@@YAXXZ      1002f86f f   libcpmt:cout.obj
 0001:0002e879       ??__F_Fac_tidy_reg@std@@YAXXZ 1002f879 f   libcpmt:locale0.obj
 0001:0002e883       ??__Fclassic_locale@std@@YAXXZ 1002f883 f   libcpmt:locale0.obj
 0001:0002e88d       ??__Finit_atexit@@YAXXZ    1002f88d f   libcpmt:iosptrs.obj
 0001:0002e897       ??__Finitlocks@std@@YAXXZ  1002f897 f   libcpmt:iosptrs.obj
 0002:00000390       ?initlocks$initializer$@std@@3P6AXXZA 10030390     libcpmt:xlock.obj
 0002:00000394       ?initlocks$initializer$@@3P6AXXZA 10030394     libcpmt:cout.obj
 0002:00000398       ?fout$initializer$@std@@3P6AXXZA 10030398     libcpmt:cout.obj
 0002:0000039c       ?cout$initializer$@std@@3P6AXXZA 1003039c     libcpmt:cout.obj
 0002:000003a0       ?init_cout$initializer$@std@@3P6AXXZA 100303a0     libcpmt:cout.obj
 0002:000003a4       ?initlocks$initializer$@std@@3P6AXXZA 100303a4     libcpmt:iosptrs.obj
 0002:000003a8       ?init_atexit$initializer$@@3P6AXXZA 100303a8     libcpmt:iosptrs.obj
 0002:000003ac       ?_Fac_tidy_reg$initializer$@std@@3P6AXXZA 100303ac     libcpmt:locale0.obj
 0002:000003b0       ?classic_locale$initializer$@std@@3P6AXXZA 100303b0     libcpmt:locale0.obj
 0002:000003b4       ?session$initializer$@@3P6AXXZA 100303b4     addon.obj
 0002:000003c4       ?pinit@@3P6AHXZA           100303c4     libcpmt:winapisupp.obj
 0002:000003c8       ?__scrt_initialize_tss_var@@3P6AHXZA 100303c8     LIBCMT:thread_safe_statics.obj
 0002:00000620       ?_Win_errtab@std@@3QBU_Win_errtab_t@1@B 10030620     libcpmt:syserror.obj
 0002:00000870       ?_Sys_errtab@std@@3QBU_Sys_errtab_t@1@B 10030870     libcpmt:syserror.obj
 0002:00001518       _digits                    10031518     libcpmt:xstoul.obj
 0002:00001540       _ndigs                     10031540     libcpmt:xstoul.obj
 0002:00001568       _digits                    10031568     libcpmt:xstoull.obj
 0002:00001590       _ndigs                     10031590     libcpmt:xstoull.obj
 0002:000015b8       ?LcidToLocaleNameTable@@3QBULcidToLocaleName@@B 100315b8     libcpmt:winapinls.obj
 0002:00001cd8       ?LocaleNameToIndexTable@@3QBULocaleNameIndex@@B 10031cd8     libcpmt:winapinls.obj
 0002:00003668       ?digits@?1??_Stoxflt@@9@9  10033668     libcpmt:xstoxflt.obj
 0002:00003680       ?vals@?1??_Stoxflt@@9@9    10033680     libcpmt:xstoxflt.obj
 0002:000036a0       _tenth                     100336a0     libcpmt:xfdtento.obj
 0002:000036b0       _tenth                     100336b0     libcpmt:xdtento.obj
 0002:000036d0       _tenth                     100336d0     libcpmt:xldtento.obj
 0002:000036f0       ?mask@?3??_FDint@@9@9      100336f0     libcpmt:xfdint.obj
 0002:00003710       ?sub@?3??_FDint@@9@9       10033710     libcpmt:xfdint.obj
 0002:00003718       ?mask@?3??_Dint@@9@9       10033718     libcpmt:xdint.obj
 0002:00003738       ?sub@?3??_Dint@@9@9        10033738     libcpmt:xdint.obj
 0002:00003754       _GS_ExceptionPointers      10033754     LIBCMT:gs_report.obj
 0002:000037a0       ?ExceptionTemplate@?1??_CxxThrowException@@9@8@4UEHExceptionRecord@@B 100337a0     libvcruntime:throw.obj
 0002:000037c0       ?module_names@?A0x1821e63c@@3QBQB_WB 100337c0     libvcruntime:winapi_downlevel.obj
 0002:00003870       ?candidate_modules@?1??try_get_EventRegister@@YAP6GKPBU_GUID@@P6GX0KE_K1PAU_EVENT_FILTER_DESCRIPTOR@@PAX@Z3PA_K@ZXZ@4QBW4module_id@?A0x1821e63c@@B 10033870     libvcruntime:winapi_downlevel.obj
 0002:00003884       ?candidate_modules@?1??try_get_EventSetInformation@@YAP6GK_KW4_EVENT_INFO_CLASS@@PAXK@ZXZ@4QBW4module_id@?A0x1821e63c@@B 10033884     libvcruntime:winapi_downlevel.obj
 0002:0000389c       ?candidate_modules@?1??try_get_EventUnregister@@YAP6GK_K@ZXZ@4QBW4module_id@?A0x1821e63c@@B 1003389c     libvcruntime:winapi_downlevel.obj
 0002:000038b0       ?candidate_modules@?1??try_get_EventWriteTransfer@@YAP6GK_KPBU_EVENT_DESCRIPTOR@@PBU_GUID@@2KPAU_EVENT_DATA_DESCRIPTOR@@@ZXZ@4QBW4module_id@?A0x1821e63c@@B 100338b0     libvcruntime:winapi_downlevel.obj
 0002:000038c8       ?candidate_modules@?1??try_get_FlsAlloc@@YAP6GKP6GXPAX@Z@ZXZ@4QBW4module_id@?A0x1821e63c@@B 100338c8     libvcruntime:winapi_downlevel.obj
 0002:000038d0       ?candidate_modules@?1??try_get_FlsFree@@YAP6GHK@ZXZ@4QBW4module_id@?A0x1821e63c@@B 100338d0     libvcruntime:winapi_downlevel.obj
 0002:000038d8       ?candidate_modules@?1??try_get_FlsGetValue@@YAP6GPAXK@ZXZ@4QBW4module_id@?A0x1821e63c@@B 100338d8     libvcruntime:winapi_downlevel.obj
 0002:000038e0       ?candidate_modules@?1??try_get_FlsSetValue@@YAP6GHKPAX@ZXZ@4QBW4module_id@?A0x1821e63c@@B 100338e0     libvcruntime:winapi_downlevel.obj
 0002:000038e8       ?candidate_modules@?1??try_get_InitializeCriticalSectionEx@@YAP6GHPAU_RTL_CRITICAL_SECTION@@KK@ZXZ@4QBW4module_id@?A0x1821e63c@@B 100338e8     libvcruntime:winapi_downlevel.obj
 0002:00003918       ?tokenTable@@3QBQBDB       10033918     libvcruntime:undname.obj
 0002:00003950       ?nameTable@@3QBQBDB        10033950     libvcruntime:undname.obj
 0002:00003a94       ?rttiTable@@3QBQBDB        10033a94     libvcruntime:undname.obj
 0002:00004408       _errtable                  10034408     libucrt:errno.obj
 0002:00004d80       _NAME_                     10034d80     libucrt:sqrt.obj
 0002:00004e50       ___acrt_initializers       10034e50     libucrt:initialization.obj
 0002:00004f38       _module_names              10034f38     libucrt:winapi_thunks.obj
 0002:000053d8       ?candidate_modules@?1??try_get_CompareStringEx@@YAP6GHPB_WK0H0HPAU_nlsversioninfo@@PAXJ@ZXZ@4QBW4module_id@?A0x352e5c4b@@B 100353d8     libucrt:winapi_thunks.obj
 0002:000053e0       ?candidate_modules@?1??try_get_EnumSystemLocalesEx@@YAP6GHP6GHPA_WKJ@ZKJPAX@ZXZ@4QBW4module_id@?A0x352e5c4b@@B 100353e0     libucrt:winapi_thunks.obj
 0002:000053fc       ?candidate_modules@?1??try_get_FlsAlloc@@YAP6GKP6GXPAX@Z@ZXZ@4QBW4module_id@?A0x352e5c4b@@B 100353fc     libucrt:winapi_thunks.obj
 0002:00005404       ?candidate_modules@?1??try_get_FlsFree@@YAP6GHK@ZXZ@4QBW4module_id@?A0x352e5c4b@@B 10035404     libucrt:winapi_thunks.obj
 0002:0000540c       ?candidate_modules@?1??try_get_FlsGetValue@@YAP6GPAXK@ZXZ@4QBW4module_id@?A0x352e5c4b@@B 1003540c     libucrt:winapi_thunks.obj
 0002:00005414       ?candidate_modules@?1??try_get_FlsSetValue@@YAP6GHKPAX@ZXZ@4QBW4module_id@?A0x352e5c4b@@B 10035414     libucrt:winapi_thunks.obj
 0002:0000541c       ?candidate_modules@?1??try_get_GetActiveWindow@@YAP6GPAUHWND__@@XZXZ@4QBW4module_id@?A0x352e5c4b@@B 1003541c     libucrt:winapi_thunks.obj
 0002:00005434       ?candidate_modules@?1??try_get_GetCurrentPackageId@@YAP6GJPAIPAE@ZXZ@4QBW4module_id@?A0x352e5c4b@@B 10035434     libucrt:winapi_thunks.obj
 0002:0000543c       ?candidate_modules@?1??try_get_GetLastActivePopup@@YAP6GPAUHWND__@@PAU2@@ZXZ@4QBW4module_id@?A0x352e5c4b@@B 1003543c     libucrt:winapi_thunks.obj
 0002:00005458       ?candidate_modules@?1??try_get_GetLocaleInfoEx@@YAP6GHPB_WKPA_WH@ZXZ@4QBW4module_id@?A0x352e5c4b@@B 10035458     libucrt:winapi_thunks.obj
 0002:00005460       ?candidate_modules@?1??try_get_GetProcessWindowStation@@YAP6GPAUHWINSTA__@@XZXZ@4QBW4module_id@?A0x352e5c4b@@B 10035460     libucrt:winapi_thunks.obj
 0002:00005480       ?candidate_modules@?1??try_get_GetSystemTimePreciseAsFileTime@@YAP6GXPAU_FILETIME@@@ZXZ@4QBW4module_id@?A0x352e5c4b@@B 10035480     libucrt:winapi_thunks.obj
 0002:00005484       ?candidate_modules@?1??try_get_GetUserDefaultLocaleName@@YAP6GHPA_WH@ZXZ@4QBW4module_id@?A0x352e5c4b@@B 10035484     libucrt:winapi_thunks.obj
 0002:000054a8       ?candidate_modules@?1??try_get_GetUserObjectInformationW@@YAP6GHPAXH0KPAK@ZXZ@4QBW4module_id@?A0x352e5c4b@@B 100354a8     libucrt:winapi_thunks.obj
 0002:000054cc       ?candidate_modules@?1??try_get_InitializeCriticalSectionEx@@YAP6GHPAU_RTL_CRITICAL_SECTION@@KK@ZXZ@4QBW4module_id@?A0x352e5c4b@@B 100354cc     libucrt:winapi_thunks.obj
 0002:000054d4       ?candidate_modules@?1??try_get_IsValidLocaleName@@YAP6GHPB_W@ZXZ@4QBW4module_id@?A0x352e5c4b@@B 100354d4     libucrt:winapi_thunks.obj
 0002:000054f0       ?candidate_modules@?1??try_get_LCMapStringEx@@YAP6GHPB_WK0HPA_WHPAU_nlsversioninfo@@PAXJ@ZXZ@4QBW4module_id@?A0x352e5c4b@@B 100354f0     libucrt:winapi_thunks.obj
 0002:000054f8       ?candidate_modules@?1??try_get_LCIDToLocaleName@@YAP6GHKPA_WHK@ZXZ@4QBW4module_id@?A0x352e5c4b@@B 100354f8     libucrt:winapi_thunks.obj
 0002:00005514       ?candidate_modules@?1??try_get_LocaleNameToLCID@@YAP6GKPB_WK@ZXZ@4QBW4module_id@?A0x352e5c4b@@B 10035514     libucrt:winapi_thunks.obj
 0002:00005530       ?candidate_modules@?1??try_get_MessageBoxA@@YAP6GHPAUHWND__@@PBD1I@ZXZ@4QBW4module_id@?A0x352e5c4b@@B 10035530     libucrt:winapi_thunks.obj
 0002:00005544       ?candidate_modules@?1??try_get_MessageBoxW@@YAP6GHPAUHWND__@@PB_W1I@ZXZ@4QBW4module_id@?A0x352e5c4b@@B 10035544     libucrt:winapi_thunks.obj
 0002:00005668       __first_127char            10035668     libucrt:wsetlocale.obj
 0002:00005c68       ?_names@?1??_get_fname@@9@9 10035c68     libucrt:fpexcept.obj
 0002:00005d90       _over                      10035d90     libucrt:fpctrl.obj
 0002:00005d9c       _under                     10035d9c     libucrt:fpctrl.obj
 0002:00005dce       One                        10035dce     libucrt:87disp.obj
 0002:00005dd6       Three                      10035dd6     libucrt:87disp.obj
 0002:00005dde       XAMtoTagTab                10035dde     libucrt:87disp.obj
 0002:00005df0       One                        10035df0     libucrt:common.obj
 0002:00005e04       DblMax                     10035e04     libucrt:common.obj
 0002:00005e0c       DblMin                     10035e0c     libucrt:common.obj
 0002:00005e14       IeeeAdjO                   10035e14     libucrt:common.obj
 0002:00005e1c       IeeeAdjU                   10035e1c     libucrt:common.obj
 0002:00005e24       _infinity                  10035e24     libucrt:common.obj
 0002:00005e2c       _zero                      10035e2c     libucrt:common.obj
 0002:00005e34       __mb_locale_names          10035e34     libucrt:mbctype.obj
 0002:00005e48       _LcidToLocaleNameTable     10035e48     libucrt:lcidtoname_downlevel.obj
 0002:00006568       _LocaleNameToIndexTable    10036568     libucrt:lcidtoname_downlevel.obj
 0002:00008430       LOG_name                   10038430     libucrt:log10.obj
 0002:00008440       _One                       10038440     libucrt:ceil_pentium4.obj
 0002:00008450       _Bns                       10038450     libucrt:ceil_pentium4.obj
 0002:00008460       _Zero                      10038460     libucrt:ceil_pentium4.obj
 0002:00008470       _S                         10038470     libucrt:ceil_pentium4.obj
 0002:00008480       _NegZero                   10038480     libucrt:ceil_pentium4.obj
 0002:000084a0       emask                      100384a0     libucrt:log10_pentium4.obj
 0002:000084b0       CC                         100384b0     libucrt:log10_pentium4.obj
 0002:000084c0       Magic                      100384c0     libucrt:log10_pentium4.obj
 0002:000084d0       hi_mask                    100384d0     libucrt:log10_pentium4.obj
 0002:000084e0       LOG10_2                    100384e0     libucrt:log10_pentium4.obj
 0002:000084f0       place_L                    100384f0     libucrt:log10_pentium4.obj
 0002:00008510       One                        10038510     libucrt:log10_pentium4.obj
 0002:00008520       Zero                       10038520     libucrt:log10_pentium4.obj
 0002:00008530       Two52                      10038530     libucrt:log10_pentium4.obj
 0002:00008540       Infs                       10038540     libucrt:log10_pentium4.obj
 0002:00008550       NaN                        10038550     libucrt:log10_pentium4.obj
 0002:00008560       coeff                      10038560     libucrt:log10_pentium4.obj
 0002:000085be       _log2max                   100385be     libucrt:87tran.obj
 0002:000085c8       _smallarg                  100385c8     libucrt:87tran.obj
 0002:000085d2       _half                      100385d2     libucrt:87tran.obj
 0002:000095d0       _Int32ToUInt32             100395d0     LIBCMT:_ftol3_.obj
 0002:000095d8       _DP2to32                   100395d8     LIBCMT:_ftol3_.obj
 0002:000095e0       _MantissaMask              100395e0     LIBCMT:_ftol3_.obj
 0002:000095e8       _IntegerBit                100395e8     LIBCMT:_ftol3_.obj
 0002:000095f0       _SignBit64                 100395f0     LIBCMT:_ftol3_.obj
 0002:000095f8       _MinFP64                   100395f8     LIBCMT:_ftol3_.obj
 0002:00009600       _MinInt64                  10039600     LIBCMT:_ftol3_.obj
 0002:00009608       _MaxInt64                  10039608     LIBCMT:_ftol3_.obj
 0002:00009610       _MaxUInt64                 10039610     LIBCMT:_ftol3_.obj
 0002:00009618       _MaxFP32                   10039618     LIBCMT:_ftol3_.obj
 0002:00009620       _MinFP32                   10039620     LIBCMT:_ftol3_.obj
 0002:00009628       _MinSubInexact             10039628     LIBCMT:_ftol3_.obj
 0002:00009630       _FpExcptTable              10039630     LIBCMT:_ftol3_.obj
 0002:00009640       _i1075                     10039640     LIBCMT:_ftol3_.obj
 0002:00009644       _i1087                     10039644     LIBCMT:_ftol3_.obj
 0002:00009648       _x0800                     10039648     LIBCMT:_ftol3_.obj
 0002:0000964c       _x17FF                     1003964c     LIBCMT:_ftol3_.obj
 0002:00009650       _CWMask                    10039650     LIBCMT:_ftol3_.obj
 0002:0000a148       ?_TlgEvent@?3??__telemetry_main_invoke_trigger@@9@4U<unnamed-type-_TlgEvent>@?3??1@YAXQAUHINSTANCE__@@@Z@B 1003a148     libvcruntime:telemetry.obj
 0002:0000a184       ?_TlgEvent@?3??__telemetry_main_return_trigger@@9@4U<unnamed-type-_TlgEvent>@?3??1@YAXQAUHINSTANCE__@@@Z@B 1003a184     libvcruntime:telemetry.obj
 0002:0000a1bf       ?_Tlg_Microsoft_CRTProviderProv_Meta@@3U<unnamed-type-_Tlg_Microsoft_CRTProviderProv_Meta>@@B 1003a1bf     libvcruntime:telemetry.obj
 0002:0000a6f0       __catchsym$?getV8Data@DataHelper@@SA?AV?$Local@VArray@v8@@@v8@@V?$vector@V?$map@V?$basic_string@DU?$char_traits@D@std@@V?$allocator@D@2@@std@@VItemValue@@U?$less@V?$basic_string@DU?$char_traits@D@std@@V?$allocator@D@2@@std@@@2@V?$allocator@U?$pair@$$CBV?$basic_string@DU?$char_traits@D@std@@V?$allocator@D@2@@std@@VItemValue@@@std@@@2@@std@@V?$allocator@V?$map@V?$basic_string@DU?$char_traits@D@std@@V?$allocator@D@2@@std@@VItemValue@@U?$less@V?$basic_string@DU?$char_traits@D@std@@V?$allocator@D@2@@std@@@2@V?$allocator@U?$pair@$$CBV?$basic_string@DU?$char_traits@D@std@@V?$allocator@D@2@@std@@VItemValue@@@std@@@2@@std@@@2@@std@@@Z$2 1003a6f0     DataHelper.obj
 0002:0000a700       __unwindtable$?getV8Data@DataHelper@@SA?AV?$Local@VArray@v8@@@v8@@V?$vector@V?$map@V?$basic_string@DU?$char_traits@D@std@@V?$allocator@D@2@@std@@VItemValue@@U?$less@V?$basic_string@DU?$char_traits@D@std@@V?$allocator@D@2@@std@@@2@V?$allocator@U?$pair@$$CBV?$basic_string@DU?$char_traits@D@std@@V?$allocator@D@2@@std@@VItemValue@@@std@@@2@@std@@V?$allocator@V?$map@V?$basic_string@DU?$char_traits@D@std@@V?$allocator@D@2@@std@@VItemValue@@U?$less@V?$basic_string@DU?$char_traits@D@std@@V?$allocator@D@2@@std@@@2@V?$allocator@U?$pair@$$CBV?$basic_string@DU?$char_traits@D@std@@V?$allocator@D@2@@std@@VItemValue@@@std@@@2@@std@@@2@@std@@@Z 1003a700     DataHelper.obj
 0002:0000a710       __tryblocktable$?getV8Data@DataHelper@@SA?AV?$Local@VArray@v8@@@v8@@V?$vector@V?$map@V?$basic_string@DU?$char_traits@D@std@@V?$allocator@D@2@@std@@VItemValue@@U?$less@V?$basic_string@DU?$char_traits@D@std@@V?$allocator@D@2@@std@@@2@V?$allocator@U?$pair@$$CBV?$basic_string@DU?$char_traits@D@std@@V?$allocator@D@2@@std@@VItemValue@@@std@@@2@@std@@V?$allocator@V?$map@V?$basic_string@DU?$char_traits@D@std@@V?$allocator@D@2@@std@@VItemValue@@U?$less@V?$basic_string@DU?$char_traits@D@std@@V?$allocator@D@2@@std@@@2@V?$allocator@U?$pair@$$CBV?$basic_string@DU?$char_traits@D@std@@V?$allocator@D@2@@std@@VItemValue@@@std@@@2@@std@@@2@@std@@@Z 1003a710     DataHelper.obj
 0002:0000a724       __ehfuncinfo$?getV8Data@DataHelper@@SA?AV?$Local@VArray@v8@@@v8@@V?$vector@V?$map@V?$basic_string@DU?$char_traits@D@std@@V?$allocator@D@2@@std@@VItemValue@@U?$less@V?$basic_string@DU?$char_traits@D@std@@V?$allocator@D@2@@std@@@2@V?$allocator@U?$pair@$$CBV?$basic_string@DU?$char_traits@D@std@@V?$allocator@D@2@@std@@VItemValue@@@std@@@2@@std@@V?$allocator@V?$map@V?$basic_string@DU?$char_traits@D@std@@V?$allocator@D@2@@std@@VItemValue@@U?$less@V?$basic_string@DU?$char_traits@D@std@@V?$allocator@D@2@@std@@@2@V?$allocator@U?$pair@$$CBV?$basic_string@DU?$char_traits@D@std@@V?$allocator@D@2@@std@@VItemValue@@@std@@@2@@std@@@2@@std@@@Z 1003a724     DataHelper.obj
 0002:0000a748       __catchsym$?Execute@DeleteDocumentWorker@@UAEXXZ$2 1003a748     delete_document_async.obj
 0002:0000a758       __unwindtable$?Execute@DeleteDocumentWorker@@UAEXXZ 1003a758     delete_document_async.obj
 0002:0000a768       __tryblocktable$?Execute@DeleteDocumentWorker@@UAEXXZ 1003a768     delete_document_async.obj
 0002:0000a77c       __ehfuncinfo$?Execute@DeleteDocumentWorker@@UAEXXZ 1003a77c     delete_document_async.obj
 0002:0000a7a0       __catchsym$?Execute@DocumentWorker@@UAEXXZ$2 1003a7a0     document_async.obj
 0002:0000a7b0       __unwindtable$?Execute@DocumentWorker@@UAEXXZ 1003a7b0     document_async.obj
 0002:0000a7c0       __tryblocktable$?Execute@DocumentWorker@@UAEXXZ 1003a7c0     document_async.obj
 0002:0000a7d4       __ehfuncinfo$?Execute@DocumentWorker@@UAEXXZ 1003a7d4     document_async.obj
 0002:0000a7f8       __catchsym$?Execute@ResponseDocumentsWorker@@UAEXXZ$2 1003a7f8     getresponse_documents.obj
 0002:0000a808       __unwindtable$?Execute@ResponseDocumentsWorker@@UAEXXZ 1003a808     getresponse_documents.obj
 0002:0000a818       __tryblocktable$?Execute@ResponseDocumentsWorker@@UAEXXZ 1003a818     getresponse_documents.obj
 0002:0000a82c       __ehfuncinfo$?Execute@ResponseDocumentsWorker@@UAEXXZ 1003a82c     getresponse_documents.obj
 0002:0000a850       __catchsym$?DateValue@ItemValue@@QAEXPAVLNDatetime@@@Z$2 1003a850     ItemValue.obj
 0002:0000a860       __unwindtable$?DateValue@ItemValue@@QAEXPAVLNDatetime@@@Z 1003a860     ItemValue.obj
 0002:0000a870       __tryblocktable$?DateValue@ItemValue@@QAEXPAVLNDatetime@@@Z 1003a870     ItemValue.obj
 0002:0000a884       __ehfuncinfo$?DateValue@ItemValue@@QAEXPAVLNDatetime@@@Z 1003a884     ItemValue.obj
 0002:0000a8a8       __catchsym$?Execute@MakeResponseDocumentWorker@@UAEXXZ$2 1003a8a8     makeresponse_document.obj
 0002:0000a8b8       __unwindtable$?Execute@MakeResponseDocumentWorker@@UAEXXZ 1003a8b8     makeresponse_document.obj
 0002:0000a8c8       __tryblocktable$?Execute@MakeResponseDocumentWorker@@UAEXXZ 1003a8c8     makeresponse_document.obj
 0002:0000a8dc       __ehfuncinfo$?Execute@MakeResponseDocumentWorker@@UAEXXZ 1003a8dc     makeresponse_document.obj
 0002:0000a900       __catchsym$?Execute@ReplicateDatabaseWorker@@UAEXXZ$2 1003a900     replicate_database_async.obj
 0002:0000a910       __unwindtable$?Execute@ReplicateDatabaseWorker@@UAEXXZ 1003a910     replicate_database_async.obj
 0002:0000a920       __tryblocktable$?Execute@ReplicateDatabaseWorker@@UAEXXZ 1003a920     replicate_database_async.obj
 0002:0000a934       __ehfuncinfo$?Execute@ReplicateDatabaseWorker@@UAEXXZ 1003a934     replicate_database_async.obj
 0002:0000a958       __catchsym$?Execute@SaveDocumentWorker@@UAEXXZ$5 1003a958     save_document_async.obj
 0002:0000a968       __catchsym$?Execute@SaveDocumentWorker@@UAEXXZ$4 1003a968     save_document_async.obj
 0002:0000a978       __unwindtable$?Execute@SaveDocumentWorker@@UAEXXZ 1003a978     save_document_async.obj
 0002:0000a998       __ehfuncinfo$?Execute@SaveDocumentWorker@@UAEXXZ 1003a998     save_document_async.obj
 0002:0000a9bc       __tryblocktable$?Execute@SaveDocumentWorker@@UAEXXZ 1003a9bc     save_document_async.obj
 0002:0000a9e4       __catchsym$?Execute@ViewWorker@@UAEXXZ$2 1003a9e4     view_async.obj
 0002:0000a9f4       __unwindtable$?Execute@ViewWorker@@UAEXXZ 1003a9f4     view_async.obj
 0002:0000aa04       __tryblocktable$?Execute@ViewWorker@@UAEXXZ 1003aa04     view_async.obj
 0002:0000aa18       __ehfuncinfo$?Execute@ViewWorker@@UAEXXZ 1003aa18     view_async.obj
 0002:0000aa3c       __unwindtable$?_Init@ios_base@std@@IAEXXZ 1003aa3c     libcpmt:cout.obj
 0002:0000aa3c       __unwindtable$??0?$basic_streambuf@DU?$char_traits@D@std@@@std@@IAE@XZ 1003aa3c     libcpmt:cout.obj
 0002:0000aa44       __ehfuncinfo$??0?$basic_streambuf@DU?$char_traits@D@std@@@std@@IAE@XZ 1003aa44     libcpmt:cout.obj
 0002:0000aa44       __ehfuncinfo$?_Init@ios_base@std@@IAEXXZ 1003aa44     libcpmt:cout.obj
 0002:0000aa68       __unwindtable$??_Gios_base@std@@UAEPAXI@Z 1003aa68     libcpmt:cout.obj
 0002:0000aa70       __ehfuncinfo$??_Gios_base@std@@UAEPAXI@Z 1003aa70     libcpmt:cout.obj
 0002:0000aa94       __unwindtable$?overflow@?$basic_filebuf@DU?$char_traits@D@std@@@std@@MAEHH@Z 1003aa94     libcpmt:cout.obj
 0002:0000aa9c       __ehfuncinfo$?overflow@?$basic_filebuf@DU?$char_traits@D@std@@@std@@MAEHH@Z 1003aa9c     libcpmt:cout.obj
 0002:0000aac0       __unwindtable$?uflow@?$basic_filebuf@DU?$char_traits@D@std@@@std@@MAEHXZ 1003aac0     libcpmt:cout.obj
 0002:0000aac8       __ehfuncinfo$?uflow@?$basic_filebuf@DU?$char_traits@D@std@@@std@@MAEHXZ 1003aac8     libcpmt:cout.obj
 0002:0000aaec       __unwindtable$?_Endwrite@?$basic_filebuf@DU?$char_traits@D@std@@@std@@IAE_NXZ 1003aaec     libcpmt:cout.obj
 0002:0000aaf4       __ehfuncinfo$?_Endwrite@?$basic_filebuf@DU?$char_traits@D@std@@@std@@IAE_NXZ 1003aaf4     libcpmt:cout.obj
 0002:0000ab18       __unwindtable$??1?$basic_ios@DU?$char_traits@D@std@@@std@@UAE@XZ 1003ab18     libcpmt:cout.obj
 0002:0000ab20       __ehfuncinfo$??1?$basic_ios@DU?$char_traits@D@std@@@std@@UAE@XZ 1003ab20     libcpmt:cout.obj
 0002:0000ab44       __unwindtable$??_G?$basic_ios@DU?$char_traits@D@std@@@std@@UAEPAXI@Z 1003ab44     libcpmt:cout.obj
 0002:0000ab54       __ehfuncinfo$??_G?$basic_ios@DU?$char_traits@D@std@@@std@@UAEPAXI@Z 1003ab54     libcpmt:cout.obj
 0002:0000ab78       __unwindtable$??0?$basic_ostream@DU?$char_traits@D@std@@@std@@QAE@PAV?$basic_streambuf@DU?$char_traits@D@std@@@1@_N@Z 1003ab78     libcpmt:cout.obj
 0002:0000ab80       __ehfuncinfo$??0?$basic_ostream@DU?$char_traits@D@std@@@std@@QAE@PAV?$basic_streambuf@DU?$char_traits@D@std@@@1@_N@Z 1003ab80     libcpmt:cout.obj
 0002:0000aba4       __unwindtable$??_D?$basic_ostream@DU?$char_traits@D@std@@@std@@QAEXXZ 1003aba4     libcpmt:cout.obj
 0002:0000abb4       __ehfuncinfo$??_D?$basic_ostream@DU?$char_traits@D@std@@@std@@QAEXXZ 1003abb4     libcpmt:cout.obj
 0002:0000abd8       __unwindtable$??$use_facet@V?$codecvt@DDU_Mbstatet@@@std@@@std@@YAABV?$codecvt@DDU_Mbstatet@@@0@ABVlocale@0@@Z 1003abd8     libcpmt:cout.obj
 0002:0000abe0       __ehfuncinfo$??$use_facet@V?$codecvt@DDU_Mbstatet@@@std@@@std@@YAABV?$codecvt@DDU_Mbstatet@@@0@ABVlocale@0@@Z 1003abe0     libcpmt:cout.obj
 0002:0000ac04       __unwindtable$?_Getcat@?$codecvt@DDU_Mbstatet@@@std@@SAIPAPBVfacet@locale@2@PBV42@@Z 1003ac04     libcpmt:cout.obj
 0002:0000ac0c       __ehfuncinfo$?_Getcat@?$codecvt@DDU_Mbstatet@@@std@@SAIPAPBVfacet@locale@2@PBV42@@Z 1003ac0c     libcpmt:cout.obj
 0002:0000ac84       __ehfuncinfo$??1_Fac_node@std@@QAE@XZ 1003ac84     libcpmt:locale0.obj
 0002:0000ac84       __ehfuncinfo$??1_Init_atexit@@QAE@XZ 1003ac84     libcpmt:iosptrs.obj
 0002:0000ac84       __ehfuncinfo$??1_Locimp@locale@std@@MAE@XZ 1003ac84     libcpmt:locale0.obj
 0002:0000ac84       __ehfuncinfo$??1?$basic_filebuf@DU?$char_traits@D@std@@@std@@UAE@XZ 1003ac84     libcpmt:cout.obj
 0002:0000aca8       __unwindtable$?_Locimp_dtor@_Locimp@locale@std@@CAXPAV123@@Z 1003aca8     libcpmt:locale0.obj
 0002:0000acb0       __ehfuncinfo$?_Locimp_dtor@_Locimp@locale@std@@CAXPAV123@@Z 1003acb0     libcpmt:locale0.obj
 0002:0000acd4       __unwindtable$?_Init@locale@std@@CAPAV_Locimp@12@_N@Z 1003acd4     libcpmt:locale0.obj
 0002:0000acdc       __ehfuncinfo$?_Init@locale@std@@CAPAV_Locimp@12@_N@Z 1003acdc     libcpmt:locale0.obj
 0002:0000add0       __sehtable$___scrt_is_nonwritable_in_current_image 1003add0     LIBCMT:utility.obj
 0002:0000adf0       __sehtable$?dllmain_crt_process_attach@@YAHQAUHINSTANCE__@@QAX@Z 1003adf0     LIBCMT:dll_dllmain.obj
 0002:0000ae10       __sehtable$?dllmain_crt_process_detach@@YAH_N@Z 1003ae10     LIBCMT:dll_dllmain.obj
 0002:0000ae30       __sehtable$?dllmain_dispatch@@YAHQAUHINSTANCE__@@KQAX@Z 1003ae30     LIBCMT:dll_dllmain.obj
 0002:0000ae88       __sehtable$___FrameUnwindToState 1003ae88     libvcruntime:frame.obj
 0002:0000aeb0       __sehtable$?CallCatchBlock@@YAPAXPAUEHExceptionRecord@@PAUEHRegistrationNode@@PAU_CONTEXT@@PBU_s_FuncInfo@@PAXHK@Z 1003aeb0     libvcruntime:frame.obj
 0002:0000aed8       __sehtable$___BuildCatchObject 1003aed8     libvcruntime:frame.obj
 0002:0000aef8       __sehtable$___DestructExceptionObject 1003aef8     libvcruntime:frame.obj
 0002:0000af14       __catchsym$?CallUnexpected@@YAXPBU_s_ESTypeList@@@Z$2 1003af14     libvcruntime:frame.obj
 0002:0000af24       __unwindtable$?CallUnexpected@@YAXPBU_s_ESTypeList@@@Z 1003af24     libvcruntime:frame.obj
 0002:0000af34       __tryblocktable$?CallUnexpected@@YAXPBU_s_ESTypeList@@@Z 1003af34     libvcruntime:frame.obj
 0002:0000af48       __ehfuncinfo$?CallUnexpected@@YAXPBU_s_ESTypeList@@@Z 1003af48     libvcruntime:frame.obj
 0002:0000af70       __sehtable$___BuildCatchObjectHelper 1003af70     libvcruntime:frame.obj
 0002:0000afc8       __sehtable$??$?RV<lambda_ab9923ffb5d694ec0d78876dd103e44f>@@AAV<lambda_481dd5778c961fbcd3b60b650e9b9dc4>@@V<lambda_7923d86c9e3f319b415918ec4b39749c>@@@?$__crt_seh_guarded_call@H@@QAEH$$QAV<lambda_ab9923ffb5d694ec0d78876dd103e44f>@@AAV<lambda_481dd5778c961fbcd3b60b650e9b9dc4>@@$$QAV<lambda_7923d86c9e3f319b415918ec4b39749c>@@@Z 1003afc8     libucrt:output.obj
 0002:0000afe8       __sehtable$_fclose         1003afe8     libucrt:fclose.obj
 0002:0000b008       __sehtable$_fflush         1003b008     libucrt:fflush.obj
 0002:0000b028       __sehtable$_common_flush_all 1003b028     libucrt:fflush.obj
 0002:0000b050       __sehtable$_fgetc          1003b050     libucrt:fgetc.obj
 0002:0000b070       __sehtable$_fputc          1003b070     libucrt:fputc.obj
 0002:0000b090       __sehtable$?common_fseek@@YAHV__crt_stdio_stream@@_JH@Z 1003b090     libucrt:fseek.obj
 0002:0000b0b0       __sehtable$??$?RV<lambda_11b4f7b0d3157825a5656a18eba1ae27>@@AAV<lambda_b51c0495177f500e782686251704ae76>@@V<lambda_cf89b47920b5017557bfe891e78aca36>@@@?$__crt_seh_guarded_call@I@@QAEI$$QAV<lambda_11b4f7b0d3157825a5656a18eba1ae27>@@AAV<lambda_b51c0495177f500e782686251704ae76>@@$$QAV<lambda_cf89b47920b5017557bfe891e78aca36>@@@Z 1003b0b0     libucrt:fwrite.obj
 0002:0000b0d0       __sehtable$??$?RV<lambda_d92cfe8357b99225085016881b624cb0>@@AAV<lambda_b721fa326cdb32351d23dfa67958c160>@@V<lambda_42d75b0848218ec137fa420c8ba9fdf9>@@@?$__crt_seh_guarded_call@H@@QAEH$$QAV<lambda_d92cfe8357b99225085016881b624cb0>@@AAV<lambda_b721fa326cdb32351d23dfa67958c160>@@$$QAV<lambda_42d75b0848218ec137fa420c8ba9fdf9>@@@Z 1003b0d0     libucrt:setvbuf.obj
 0002:0000b0f0       __sehtable$_ungetc         1003b0f0     libucrt:ungetc.obj
 0002:0000b110       __sehtable$_setlocale      1003b110     libucrt:setlocale.obj
 0002:0000b130       __sehtable$?common_exit@@YAXHW4_crt_exit_cleanup_mode@@W4_crt_exit_return_mode@@@Z 1003b130     libucrt:exit.obj
 0002:0000b158       __sehtable$??$?RV<lambda_800076c951b434888f4765a74a194fcc>@@AAV<lambda_4e60a939b0d047cfe11ddc22648dfba9>@@V<lambda_6dbb1268764f43b569ce7b67e331d33a>@@@?$__crt_seh_guarded_call@H@@QAEH$$QAV<lambda_800076c951b434888f4765a74a194fcc>@@AAV<lambda_4e60a939b0d047cfe11ddc22648dfba9>@@$$QAV<lambda_6dbb1268764f43b569ce7b67e331d33a>@@@Z 1003b158     libucrt:onexit.obj
 0002:0000b178       __sehtable$??$?RV<lambda_995298e7d72eb4c2aab26c0585b3abe5>@@AAV<lambda_275893d493268fdec8709772e3fcec0e>@@V<lambda_293819299cbf9a7022e18b56a874bb5c>@@@?$__crt_seh_guarded_call@H@@QAEH$$QAV<lambda_995298e7d72eb4c2aab26c0585b3abe5>@@AAV<lambda_275893d493268fdec8709772e3fcec0e>@@$$QAV<lambda_293819299cbf9a7022e18b56a874bb5c>@@@Z 1003b178     libucrt:onexit.obj
 0002:0000b198       __sehtable$__query_new_handler 1003b198     libucrt:new_handler.obj
 0002:0000b1b8       __sehtable$_terminate      1003b1b8     libucrt:terminate.obj
 0002:0000b1d8       __sehtable$_raise          1003b1d8     libucrt:signal.obj
 0002:0000b1f8       __sehtable$??$?RV<lambda_a048d3beccc847880fc8490e18b82769>@@AAV<lambda_ec61778202f4f5fc7e7711acc23c3bca>@@V<lambda_f7496a158712204296dd6628a163878e>@@@?$__crt_seh_guarded_call@P6AXH@Z@@QAEP6AXH@Z$$QAV<lambda_a048d3beccc847880fc8490e18b82769>@@AAV<lambda_ec61778202f4f5fc7e7711acc23c3bca>@@$$QAV<lambda_f7496a158712204296dd6628a163878e>@@@Z 1003b1f8     libucrt:signal.obj
 0002:0000b218       __sehtable$??$?RV<lambda_9df27f884b057bc3edfc946cb5b7cf47>@@AAV<lambda_e69574bed617af4e071282c136b37893>@@V<lambda_cc0d902bcbbeb830f749456577db4721>@@@?$__crt_seh_guarded_call@X@@QAEX$$QAV<lambda_9df27f884b057bc3edfc946cb5b7cf47>@@AAV<lambda_e69574bed617af4e071282c136b37893>@@$$QAV<lambda_cc0d902bcbbeb830f749456577db4721>@@@Z 1003b218     libucrt:per_thread_data.obj
 0002:0000b238       __sehtable$??$?RV<lambda_3518db117f0e7cdb002338c5d3c47b6c>@@AAV<lambda_b2ea41f6bbb362cd97d94c6828d90b61>@@V<lambda_abdedf541bb04549bc734292b4a045d4>@@@?$__crt_seh_guarded_call@X@@QAEX$$QAV<lambda_3518db117f0e7cdb002338c5d3c47b6c>@@AAV<lambda_b2ea41f6bbb362cd97d94c6828d90b61>@@$$QAV<lambda_abdedf541bb04549bc734292b4a045d4>@@@Z 1003b238     libucrt:per_thread_data.obj
 0002:0000b258       __sehtable$??$?RV<lambda_51b6e8b1eb166f2a3faf91f424b38130>@@AAV<lambda_6250bd4b2a391816dd638c3bf72b0bcb>@@V<lambda_0b5a4a3e68152e1d9b943535f5f47bed>@@@?$__crt_seh_guarded_call@X@@QAEX$$QAV<lambda_51b6e8b1eb166f2a3faf91f424b38130>@@AAV<lambda_6250bd4b2a391816dd638c3bf72b0bcb>@@$$QAV<lambda_0b5a4a3e68152e1d9b943535f5f47bed>@@@Z 1003b258     libucrt:per_thread_data.obj
 0002:0000b278       __sehtable$??$?RV<lambda_5b71d36f03204c0beab531769a5b5694>@@AAV<lambda_be2b3da3f62db62e9dad5dc70221a656>@@V<lambda_8f9ce462984622f9bf76b59e2aaaf805>@@@?$__crt_seh_guarded_call@X@@QAEX$$QAV<lambda_5b71d36f03204c0beab531769a5b5694>@@AAV<lambda_be2b3da3f62db62e9dad5dc70221a656>@@$$QAV<lambda_8f9ce462984622f9bf76b59e2aaaf805>@@@Z 1003b278     libucrt:per_thread_data.obj
 0002:0000b298       __sehtable$__isindst       1003b298     libucrt:tzset.obj
 0002:0000b2b8       __sehtable$___tzset        1003b2b8     libucrt:tzset.obj
 0002:0000b2d8       __sehtable$??$?RV<lambda_9227be29367c048ad7fd93a717dcb1a1>@@AAV<lambda_a463b7b0560cfcaf9b17f27c6ef46564>@@V<lambda_ccea11b5727ccf69be64f5f5d9a08d9f>@@@?$__crt_seh_guarded_call@H@@QAEH$$QAV<lambda_9227be29367c048ad7fd93a717dcb1a1>@@AAV<lambda_a463b7b0560cfcaf9b17f27c6ef46564>@@$$QAV<lambda_ccea11b5727ccf69be64f5f5d9a08d9f>@@@Z 1003b2d8     libucrt:winapi_thunks.obj
 0002:0000b2f8       __sehtable$___acrt_uninitialize_locale 1003b2f8     libucrt:wsetlocale.obj
 0002:0000b318       __sehtable$??$?RV<lambda_70818de7b02deff9841e8b0962a60ed9>@@AAV<lambda_2af78c5f5901b1372d98f9ab3177dfa6>@@AAV<lambda_f51fe5fd7c79a33db34fc9310f277369>@@@?$__crt_seh_guarded_call@X@@QAEX$$QAV<lambda_70818de7b02deff9841e8b0962a60ed9>@@AAV<lambda_2af78c5f5901b1372d98f9ab3177dfa6>@@AAV<lambda_f51fe5fd7c79a33db34fc9310f277369>@@@Z 1003b318     libucrt:wsetlocale.obj
 0002:0000b338       __sehtable$??$?RV<lambda_c76fdea48760d5f9368b465f31df4405>@@AAV<lambda_e378711a6f6581bf7f0efd7cdf97f5d9>@@V<lambda_e927a58b2a85c081d733e8c6192ae2d2>@@@?$__crt_seh_guarded_call@X@@QAEX$$QAV<lambda_c76fdea48760d5f9368b465f31df4405>@@AAV<lambda_e378711a6f6581bf7f0efd7cdf97f5d9>@@$$QAV<lambda_e927a58b2a85c081d733e8c6192ae2d2>@@@Z 1003b338     libucrt:wsetlocale.obj
 0002:0000b358       __sehtable$___acrt_initialize_lowio 1003b358     libucrt:ioinit.obj
 0002:0000b378       __sehtable$__fcloseall     1003b378     libucrt:closeall.obj
 0002:0000b398       __sehtable$??$?RV<lambda_123407a5e2ac06da108355a851863b7a>@@AAV<lambda_2fe9b910cf3cbf4a0ab98a02ba45b3ec>@@V<lambda_ae55bdf541ad94d75914d381c370e64d>@@@?$__crt_seh_guarded_call@H@@QAEH$$QAV<lambda_123407a5e2ac06da108355a851863b7a>@@AAV<lambda_2fe9b910cf3cbf4a0ab98a02ba45b3ec>@@$$QAV<lambda_ae55bdf541ad94d75914d381c370e64d>@@@Z 1003b398     libucrt:close.obj
 0002:0000b3b8       __sehtable$??$?RV<lambda_61cee617f5178ae960314fd4d05640a0>@@AAV<lambda_6978c1fb23f02e42e1d9e99668cc68aa>@@V<lambda_9cd88cf8ad10232537feb2133f08c833>@@@?$__crt_seh_guarded_call@H@@QAEH$$QAV<lambda_61cee617f5178ae960314fd4d05640a0>@@AAV<lambda_6978c1fb23f02e42e1d9e99668cc68aa>@@$$QAV<lambda_9cd88cf8ad10232537feb2133f08c833>@@@Z 1003b3b8     libucrt:commit.obj
 0002:0000b3d8       __sehtable$__write         1003b3d8     libucrt:write.obj
 0002:0000b3f8       __sehtable$??$common_ftell@_J@@YA_JV__crt_stdio_stream@@@Z 1003b3f8     libucrt:ftell.obj
 0002:0000b418       __sehtable$??$common_lseek@_J@@YA_JH_JH@Z 1003b418     libucrt:lseek.obj
 0002:0000b438       __sehtable$___acrt_update_thread_multibyte_data 1003b438     libucrt:mbctype.obj
 0002:0000b458       __sehtable$??$?RV<lambda_978dc153c237d78434369da87b74ff60>@@AAV<lambda_ad1ced32f4ac17aa236e5ef05d6b3b7c>@@V<lambda_4a8533e2866a575feecb8298ce776b0d>@@@?$__crt_seh_guarded_call@X@@QAEX$$QAV<lambda_978dc153c237d78434369da87b74ff60>@@AAV<lambda_ad1ced32f4ac17aa236e5ef05d6b3b7c>@@$$QAV<lambda_4a8533e2866a575feecb8298ce776b0d>@@@Z 1003b458     libucrt:mbctype.obj
 0002:0000b478       __sehtable$___acrt_update_thread_locale_data 1003b478     libucrt:locale_refcounting.obj
 0002:0000b498       __sehtable$??$common_getenv_s@D@@YAHQAIQADIQBD@Z 1003b498     libucrt:getenv.obj
 0002:0000b4b8       __sehtable$___acrt_lowio_ensure_fh_exists 1003b4b8     libucrt:osfinfo.obj
 0002:0000b4d8       __sehtable$__read          1003b4d8     libucrt:read.obj
 0002:0000b4f8       __sehtable$__IsNonwritableInCurrentImage 1003b4f8     LIBCMT:pesect.obj
 0002:0000c2f0       .edata                     1003c2f0     addon.exp
 0002:0000c318       rgpv                       1003c318     addon.exp
 0002:0000c31c       rgszName                   1003c31c     addon.exp
 0002:0000c320       rgwOrd                     1003c320     addon.exp
 0002:0000c322       szName                     1003c322     addon.exp
 0002:0000c32d       $N00001                    1003c32d     addon.exp
 0002:0000c72c       .idata$6                   1003c72c     kernel32:KERNEL32.dll
 0002:0000dcbe       .idata$6                   1003dcbe     notescpp:lcppn.dll
 0002:0000e274       .idata$6                   1003e274     advapi32:ADVAPI32.dll
 0003:00000000       ?init@std@@3JA             1003f000     libcpmt:xlock.obj
 0003:00000008       ?atcount_cdecl@@3IA        1003f008     libcpmt:iosptrs.obj
 0003:000001e0       ?_Tlg_Microsoft_CRTProviderProv@@3U_TlgProvider_t@__vcrt_trace_logging_provider@@A 1003f1e0     libvcruntime:telemetry.obj
 0003:00000220       ?__vcrt_flsindex@@3KA      1003f220     libvcruntime:per_thread_data.obj
 0003:000002ac       _errno_no_memory           1003f2ac     libucrt:errno.obj
 0003:000002b0       _doserrno_no_memory        1003f2b0     libucrt:errno.obj
 0003:00000370       ___acrt_flsindex           1003f370     libucrt:per_thread_data.obj
 0003:00000378       _tzstd_program             1003f378     libucrt:timeset.obj
 0003:000003b8       _tzdst_program             1003f3b8     libucrt:timeset.obj
 0003:000003f8       _tzname_states             1003f3f8     libucrt:timeset.obj
 0003:00000400       _dststart                  1003f400     libucrt:tzset.obj
 0003:0000040c       _dstend                    1003f40c     libucrt:tzset.obj
 0003:00000418       __ctype_loc_style          1003f418     libucrt:wsetlocale.obj
 0003:00000520       ___rgctypeflag             1003f520     libucrt:mbctype.obj
 0003:00000528       ___rgcode_page_info        1003f528     libucrt:mbctype.obj
 0003:00000b60       __module                   1003fb60     addon.obj
 0003:00001130       ?initlocks@std@@3V_Init_locks@1@A 10040130     libcpmt:xlock.obj
 0003:00001138       ?mtx@std@@3PAU_RTL_CRITICAL_SECTION@@A 10040138     libcpmt:xlock.obj
 0003:000011f8       ?initlocks@@3V_Init_locks@std@@A 100401f8     libcpmt:cout.obj
 0003:000011f9       ?init_cout@std@@3U_Init_cout@1@A 100401f9     libcpmt:cout.obj
 0003:00001250       ?fout@std@@3V?$basic_filebuf@DU?$char_traits@D@std@@@1@A 10040250     libcpmt:cout.obj
 0003:000012bc       _global_locale             100402bc     libcpmt:locale0.obj
 0003:000012c4       ?_Fac_head@std@@3PAU_Fac_node@1@A 100402c4     libcpmt:locale0.obj
 0003:000012dc       ?classic_locale@std@@3Vlocale@1@A 100402dc     libcpmt:locale0.obj
 0003:000012e4       ?_Fac_tidy_reg@std@@3U_Fac_tidy_reg_t@1@B 100402e4     libcpmt:locale0.obj
 0003:000012e5       ?registered@?1??_Setgloballocale@locale@std@@CAXPAX@Z@4_NA 100402e5     libcpmt:locale0.obj
 0003:000012ec       ?stdstr@std@@3PAPAVios_base@1@A 100402ec     libcpmt:ios.obj
 0003:00001314       ?stdopens@std@@3PADA       10040314     libcpmt:ios.obj
 0003:00001344       ?atfuns_cdecl@@3PAP6AXXZA  10040344     libcpmt:iosptrs.obj
 0003:0000136c       ?initlocks@std@@3V_Init_locks@1@A 1004036c     libcpmt:iosptrs.obj
 0003:0000136d       ?init_atexit@@3U_Init_atexit@@A 1004036d     libcpmt:iosptrs.obj
 0003:000014b0       ?module_local_atexit_table@@3U_onexit_table_t@@A 100404b0     LIBCMT:utility.obj
 0003:000014bc       ?module_local_at_quick_exit_table@@3U_onexit_table_t@@A 100404bc     LIBCMT:utility.obj
 0003:000014c8       ?is_initialized_as_dll@@3_NA 100404c8     LIBCMT:utility.obj
 0003:000014cc       ?_Tss_mutex@@3U_RTL_CRITICAL_SECTION@@A 100404cc     LIBCMT:thread_safe_statics.obj
 0003:000014e4       ?_Tss_cv@@3U_RTL_CONDITION_VARIABLE@@A 100404e4     LIBCMT:thread_safe_statics.obj
 0003:000014e8       ?_Tss_event@@3PAXA         100404e8     LIBCMT:thread_safe_statics.obj
 0003:000014ec       ?encoded_sleep_condition_variable_cs@@3P6GHPAU_RTL_CONDITION_VARIABLE@@PAU_RTL_CRITICAL_SECTION@@K@ZA 100404ec     LIBCMT:thread_safe_statics.obj
 0003:000014f0       ?encoded_wake_all_condition_variable@@3P6GXPAU_RTL_CONDITION_VARIABLE@@@ZA 100404f0     LIBCMT:thread_safe_statics.obj
 0003:000014f4       ?__proc_attached@@3HA      100404f4     LIBCMT:dll_dllmain.obj
 0003:000014f8       _GS_ExceptionRecord        100404f8     LIBCMT:gs_report.obj
 0003:00001548       _GS_ContextRecord          10040548     LIBCMT:gs_report.obj
 0003:0000183c       ?module_handles@@3PAPAUHINSTANCE__@@A 1004083c     libvcruntime:winapi_downlevel.obj
 0003:0000184c       ?encoded_function_pointers@@3PAPAXA 1004084c     libvcruntime:winapi_downlevel.obj
 0003:00001874       ?__vcrt_startup_thread_ptd@@3U__vcrt_ptd@@A 10040874     libvcruntime:per_thread_data.obj
 0003:0000189c       ___vcrt_lock_table         1004089c     libvcruntime:locks.obj
 0003:000018b4       ___vcrt_locks_initialized  100408b4     libvcruntime:locks.obj
 0003:000018e0       ?heap@@3V_HeapManager@@A   100408e0     libvcruntime:undname.obj
 0003:000018f4       ___acrt_invalid_parameter_handler 100408f4     libucrt:invalid_parameter.obj
 0003:00001900       ___acrt_lock_table         10040900     libucrt:locks.obj
 0003:00001a38       ___acrt_locks_initialized  10040a38     libucrt:locks.obj
 0003:00001a48       _c_termination_complete    10040a48     libucrt:exit.obj
 0003:00001a4c       _thread_local_exit_callback_func 10040a4c     libucrt:exit.obj
 0003:00001a50       ?c_exit_complete@?5??common_exit@@YAXHW4_crt_exit_cleanup_mode@@W4_crt_exit_return_mode@@@Z@4_NA 10040a50     libucrt:exit.obj
 0003:00001a7c       ___acrt_new_handler        10040a7c     libucrt:new_handler.obj
 0003:00001a80       _ctrlc_action              10040a80     libucrt:signal.obj
 0003:00001a84       _ctrlbreak_action          10040a84     libucrt:signal.obj
 0003:00001a88       _abort_action              10040a88     libucrt:signal.obj
 0003:00001a8c       _term_action               10040a8c     libucrt:signal.obj
 0003:00001a90       ___acrt_app_type           10040a90     libucrt:report_runtime_error.obj
 0003:00001a94       ___acrt_error_mode         10040a94     libucrt:set_error_mode.obj
 0003:00001aa4       __tzname                   10040aa4     libucrt:timeset.obj
 0003:00001aa8       _last_tz                   10040aa8     libucrt:tzset.obj
 0003:00001ab0       _tz_api_used               10040ab0     libucrt:tzset.obj
 0003:00001ab8       _tz_info                   10040ab8     libucrt:tzset.obj
 0003:00001b64       ?first_time@?1??__tzset@@9@4JA 10040b64     libucrt:tzset.obj
 0003:00001b68       _module_handles            10040b68     libucrt:winapi_thunks.obj
 0003:00001bb8       _encoded_function_pointers 10040bb8     libucrt:winapi_thunks.obj
 0003:00001c38       ?static_enum_proc@?1??enum_system_locales_ex_nolock@@YAHQ6GHPA_WKJ@Z@Z@4P6GH0KJ@ZA 10040c38     libucrt:winapi_thunks.obj
 0003:00001c3c       ?state_cache@?1??__acrt_is_packaged_app@@9@4JA 10040c3c     libucrt:winapi_thunks.obj
 0003:00001c40       _enable_percent_n          10040c40     libucrt:printf_count_output.obj
 0003:00001e5c       ___acrt_global_new_mode    10040e5c     libucrt:new_mode.obj
 0003:00001e80       _fSystemSet                10040e80     libucrt:mbctype.obj
 0003:00001e84       ?initialized@?1??__acrt_initialize_multibyte@@9@4_NA 10040e84     libucrt:mbctype.obj
 0003:00001e98       _user_matherr              10040e98     libucrt:matherr.obj
 0003:00001e9c       __pmatherr_set             10040e9c     libucrt:libm_error.obj
 0004:00000000       __guard_fids____dcrt_uninitialize_environments_nolock 10041000     libucrt:environment_initialization.obj
 0004:00000008       __guard_fids__             10041008     libucrt:initialization.obj
 0004:00000068       __guard_fids____acrt_initialize_ptd 10041068     libucrt:per_thread_data.obj
 0004:0000006c       __guard_fids_??$common_show_message_box@_W@@YAHQB_W0I@Z 1004106c     libucrt:crtmbox.obj
 0004:00000070       __guard_fids_??$?RV<lambda_9227be29367c048ad7fd93a717dcb1a1>@@AAV<lambda_a463b7b0560cfcaf9b17f27c6ef46564>@@V<lambda_ccea11b5727ccf69be64f5f5d9a08d9f>@@@?$__crt_seh_guarded_call@H@@QAEH$$QAV<lambda_9227be29367c048ad7fd93a717dcb1a1>@@AAV<lambda_a463b7b0560cfcaf9b17f27c6ef46564>@@$$QAV<lambda_ccea11b5727ccf69be64f5f5d9a08d9f>@@@Z 10041070     libucrt:winapi_thunks.obj
 0004:00000074       __guard_fids__             10041074     libucrt:wsetlocale.obj
 0004:0000008c       __guard_fids__             1004108c     libucrt:stdio_initializer.obj
 0004:00000090       __guard_fids__             10041090     libucrt:stdio_initializer.obj
 0004:00000094       __guard_fids__             10041094     libucrt:timeset_initializer.obj
 0004:00000098       __guard_fids__             10041098     libucrt:locale_initializer.obj
 0004:0000009c       __guard_fids__GetLocaleNameFromLangCountry 1004109c     libucrt:get_qualified_locale.obj
 0004:000000a0       __guard_fids__GetLocaleNameFromLanguage 100410a0     libucrt:get_qualified_locale.obj
 0004:000000a4       __guard_fids__GetLcidFromLangCountry 100410a4     libucrt:getqloc_downlevel.obj
 0004:000000a8       __guard_fids__GetLcidFromLanguage 100410a8     libucrt:getqloc_downlevel.obj
 0004:000000ac       __guard_fids__GetLcidFromCountry 100410ac     libucrt:getqloc_downlevel.obj
 0004:000000b0       __guard_fids__             100410b0     libucrt:multibyte_initializer.obj
 0004:000000b4       __guard_fids____libm_error_support 100410b4     libucrt:libm_error.obj
 0004:000000b8       __guard_fids__             100410b8     libucrt:console_output_initializer.obj
 0004:000000bc       __guard_fids__             100410bc     libucrt:sse2_initializer.obj
 0004:000000c0       __guard_fids_??__Einitlocks@std@@YAXXZ 100410c0     libcpmt:xlock.obj
 0004:000000c4       __guard_fids__             100410c4     libcpmt:xlock.obj
 0004:000000c8       __guard_fids_??__Einitlocks@@YAXXZ 100410c8     libcpmt:cout.obj
 0004:000000cc       __guard_fids_??__Efout@std@@YAXXZ 100410cc     libcpmt:cout.obj
 0004:000000d0       __guard_fids_??__Ecout@std@@YAXXZ 100410d0     libcpmt:cout.obj
 0004:000000d4       __guard_fids__             100410d4     libcpmt:cout.obj
 0004:000000dc       __guard_fids__             100410dc     libcpmt:cout.obj
 0004:000000e4       __guard_fids__             100410e4     libcpmt:cout.obj
 0004:000000ec       __guard_fids__             100410ec     libcpmt:cout.obj
 0004:000000f0       __guard_fids__             100410f0     libcpmt:cout.obj
 0004:000000fc       __guard_fids__             100410fc     libcpmt:cout.obj
 0004:00000128       __guard_fids__             10041128     libcpmt:cout.obj
 0004:00000140       __guard_fids__             10041140     libcpmt:cout.obj
 0004:00000148       __guard_fids__             10041148     libcpmt:cout.obj
 0004:00000150       __guard_fids__             10041150     libcpmt:cout.obj
 0004:00000168       __guard_fids__             10041168     libcpmt:cout.obj
 0004:00000170       __guard_fids__             10041170     libcpmt:cout.obj
 0004:00000174       __guard_fids__             10041174     libcpmt:cout.obj
 0004:000001b0       __guard_fids__             100411b0     libcpmt:cout.obj
 0004:000001ec       __guard_fids__             100411ec     libcpmt:cout.obj
 0004:000001f0       __guard_fids__             100411f0     libcpmt:cout.obj
 0004:000001f4       __guard_fids__             100411f4     libcpmt:cout.obj
 0004:0000021c       __guard_fids__             1004121c     libcpmt:cout.obj
 0004:00000220       __guard_fids__             10041220     libcpmt:cout.obj
 0004:00000224       __guard_fids__             10041224     libcpmt:cout.obj
 0004:00000228       __guard_fids__             10041228     libcpmt:cout.obj
 0004:0000022c       __guard_fids__             1004122c     libcpmt:cout.obj
 0004:00000230       __guard_fids__             10041230     libcpmt:cout.obj
 0004:00000234       __guard_fids_??__E_Fac_tidy_reg@std@@YAXXZ 10041234     libcpmt:locale0.obj
 0004:00000238       __guard_fids_?_Setgloballocale@locale@std@@CAXPAX@Z 10041238     libcpmt:locale0.obj
 0004:0000023c       __guard_fids_??__Eclassic_locale@std@@YAXXZ 1004123c     libcpmt:locale0.obj
 0004:00000240       __guard_fids__             10041240     libcpmt:locale0.obj
 0004:0000024c       __guard_fids__             1004124c     libcpmt:locale0.obj
 0004:00000250       __guard_fids__             10041250     libcpmt:locale0.obj
 0004:00000254       __guard_fids__             10041254     libcpmt:xthrow.obj
 0004:0000025c       __guard_fids__             1004125c     libcpmt:xthrow.obj
 0004:00000264       __guard_fids__             10041264     libcpmt:xthrow.obj
 0004:0000026c       __guard_fids__             1004126c     libcpmt:xthrow.obj
 0004:00000274       __guard_fids__             10041274     libcpmt:xthrow.obj
 0004:00000278       __guard_fids__             10041278     libcpmt:xthrow.obj
 0004:0000027c       __guard_fids__             1004127c     libcpmt:xthrow.obj
 0004:00000280       __guard_fids__             10041280     libcpmt:xthrow.obj
 0004:00000284       __guard_fids__             10041284     libcpmt:xthrow.obj
 0004:00000288       __guard_fids__             10041288     libcpmt:xthrow.obj
 0004:0000028c       __guard_fids__             1004128c     libcpmt:xthrow.obj
 0004:00000290       __guard_fids_??__Einitlocks@std@@YAXXZ 10041290     libcpmt:iosptrs.obj
 0004:00000294       __guard_fids_??__Einit_atexit@@YAXXZ 10041294     libcpmt:iosptrs.obj
 0004:00000298       __guard_fids__             10041298     libcpmt:iosptrs.obj
 0004:0000029c       __guard_fids__             1004129c     libcpmt:iosptrs.obj
 0004:000002a0       __guard_fids__             100412a0     libcpmt:locale.obj
 0004:000002cc       __guard_fids__             100412cc     libcpmt:locale.obj
 0004:000002ec       __guard_fids__             100412ec     libcpmt:winapisupp.obj
 0004:000002f0       __guard_fids__             100412f0     LIBCMT:thread_safe_statics.obj
 0004:000002f4       __guard_fids_?__scrt_initialize_thread_safe_statics@@YAHXZ 100412f4     LIBCMT:thread_safe_statics.obj
 0004:000002f8       __guard_fids__             100412f8     LIBCMT:std_type_info_static.obj
 0004:000002fc       __guard_fids_?dllmain_crt_process_attach@@YAHQAUHINSTANCE__@@QAX@Z 100412fc     LIBCMT:dll_dllmain.obj
 0004:00000304       __guard_fids_?dllmain_dispatch@@YAHQAUHINSTANCE__@@KQAX@Z 10041304     LIBCMT:dll_dllmain.obj
 0004:00000308       __guard_fids__             10041308     LIBCMT:throw_bad_alloc.obj
 0004:00000310       __guard_fids__             10041310     LIBCMT:throw_bad_alloc.obj
 0004:00000314       __guard_fids__             10041314     LIBCMT:throw_bad_alloc.obj
 0004:00000318       __guard_fids__             10041318     LIBCMT:guard_support.obj
 0004:0000031c       __guard_fids__             1004131c     libvcruntime:frame.obj
 0004:00000320       __guard_fids__             10041320     libvcruntime:frame.obj
 0004:00000328       __guard_fids__             10041328     libvcruntime:frame.obj
 0004:0000032c       __guard_fids__             1004132c     libvcruntime:frame.obj
 0004:00000330       __guard_fids__             10041330     libvcruntime:telemetry.obj
 0004:00000334       __guard_fids_?TraceLoggingRegister@__vcrt_trace_logging_provider@@YAJPBU_TlgProvider_t@1@PBU_GUID@@P6GX1KE_K2PAU_EVENT_FILTER_DESCRIPTOR@@PAX@Z4@Z 10041334     libvcruntime:telemetry.obj
 0004:00000338       __guard_fids____vcrt_initialize_ptd 10041338     libvcruntime:per_thread_data.obj
 0006:00000060       $R000000                   10043060     * linker generated manifest res *

 Exports

  ordinal    name

        1    __register_addon_
               exported name: _register_addon_
